
My_Project.elf:     file format elf32-avr

Sections:
Idx Name          Size      VMA       LMA       File off  Algn
  0 .data         000004be  00800100  00001d76  00001e0a  2**0
                  CONTENTS, ALLOC, LOAD, DATA
  1 .text         00001d76  00000000  00000000  00000094  2**1
                  CONTENTS, ALLOC, LOAD, READONLY, CODE
  2 .bss          00000091  008005be  008005be  000022c8  2**0
                  ALLOC
  3 .comment      0000005c  00000000  00000000  000022c8  2**0
                  CONTENTS, READONLY
  4 .debug_aranges 00000110  00000000  00000000  00002324  2**0
                  CONTENTS, READONLY, DEBUGGING
  5 .debug_info   00002173  00000000  00000000  00002434  2**0
                  CONTENTS, READONLY, DEBUGGING
  6 .debug_abbrev 000004d7  00000000  00000000  000045a7  2**0
                  CONTENTS, READONLY, DEBUGGING
  7 .debug_line   00000729  00000000  00000000  00004a7e  2**0
                  CONTENTS, READONLY, DEBUGGING
  8 .debug_frame  000003f8  00000000  00000000  000051a8  2**2
                  CONTENTS, READONLY, DEBUGGING
  9 .debug_str    00000515  00000000  00000000  000055a0  2**0
                  CONTENTS, READONLY, DEBUGGING
 10 .debug_loc    00001570  00000000  00000000  00005ab5  2**0
                  CONTENTS, READONLY, DEBUGGING
 11 .debug_ranges 00000110  00000000  00000000  00007025  2**0
                  CONTENTS, READONLY, DEBUGGING

Disassembly of section .text:

00000000 <__vectors>:
       0:	0c 94 62 00 	jmp	0xc4	; 0xc4 <__ctors_end>
       4:	0c 94 7f 00 	jmp	0xfe	; 0xfe <__bad_interrupt>
       8:	0c 94 7f 00 	jmp	0xfe	; 0xfe <__bad_interrupt>
       c:	0c 94 7f 00 	jmp	0xfe	; 0xfe <__bad_interrupt>
      10:	0c 94 7f 00 	jmp	0xfe	; 0xfe <__bad_interrupt>
      14:	0c 94 7f 00 	jmp	0xfe	; 0xfe <__bad_interrupt>
      18:	0c 94 7f 00 	jmp	0xfe	; 0xfe <__bad_interrupt>
      1c:	0c 94 7f 00 	jmp	0xfe	; 0xfe <__bad_interrupt>
      20:	0c 94 7f 00 	jmp	0xfe	; 0xfe <__bad_interrupt>
      24:	0c 94 7f 00 	jmp	0xfe	; 0xfe <__bad_interrupt>
      28:	0c 94 7f 00 	jmp	0xfe	; 0xfe <__bad_interrupt>
      2c:	0c 94 7f 00 	jmp	0xfe	; 0xfe <__bad_interrupt>
      30:	0c 94 7f 00 	jmp	0xfe	; 0xfe <__bad_interrupt>
      34:	0c 94 7f 00 	jmp	0xfe	; 0xfe <__bad_interrupt>
      38:	0c 94 7f 00 	jmp	0xfe	; 0xfe <__bad_interrupt>
      3c:	0c 94 7f 00 	jmp	0xfe	; 0xfe <__bad_interrupt>
      40:	0c 94 d9 08 	jmp	0x11b2	; 0x11b2 <__vector_16>
      44:	0c 94 7f 00 	jmp	0xfe	; 0xfe <__bad_interrupt>
      48:	0c 94 7f 00 	jmp	0xfe	; 0xfe <__bad_interrupt>
      4c:	0c 94 7f 00 	jmp	0xfe	; 0xfe <__bad_interrupt>
      50:	0c 94 62 04 	jmp	0x8c4	; 0x8c4 <__vector_20>
      54:	0c 94 7f 00 	jmp	0xfe	; 0xfe <__bad_interrupt>
      58:	0c 94 7f 00 	jmp	0xfe	; 0xfe <__bad_interrupt>
      5c:	0c 94 7f 00 	jmp	0xfe	; 0xfe <__bad_interrupt>
      60:	0c 94 7f 00 	jmp	0xfe	; 0xfe <__bad_interrupt>
      64:	0c 94 7f 00 	jmp	0xfe	; 0xfe <__bad_interrupt>
      68:	0c 94 7f 00 	jmp	0xfe	; 0xfe <__bad_interrupt>
      6c:	0c 94 7f 00 	jmp	0xfe	; 0xfe <__bad_interrupt>
      70:	0c 94 7f 00 	jmp	0xfe	; 0xfe <__bad_interrupt>
      74:	0c 94 7f 00 	jmp	0xfe	; 0xfe <__bad_interrupt>
      78:	0c 94 7f 00 	jmp	0xfe	; 0xfe <__bad_interrupt>

0000007c <__trampolines_end>:
      7c:	52 45       	sbci	r21, 0x52	; 82
      7e:	41 44       	sbci	r20, 0x41	; 65
      80:	59 20       	and	r5, r9
      82:	54 4f       	sbci	r21, 0xF4	; 244
      84:	20 47       	sbci	r18, 0x70	; 112
      86:	4f 21       	and	r20, r15
	...

00000089 <pstr_nan>:
      89:	4e 41 4e                                            NAN

0000008c <pstr_inity>:
      8c:	49 4e 49 54 59                                      INITY

00000091 <pstr_inf>:
      91:	49 4e 46                                            INF

00000094 <pwr_m10>:
      94:	cd cc cc 3d 0a d7 23 3c 17 b7 d1 38 77 cc 2b 32     ...=..#<...8w.+2
      a4:	95 95 e6 24 1f b1 4f 0a                             ...$..O.

000000ac <pwr_p10>:
      ac:	00 00 20 41 00 00 c8 42 00 40 1c 46 20 bc be 4c     .. A...B.@.F ..L
      bc:	ca 1b 0e 5a ae c5 9d 74                             ...Z...t

000000c4 <__ctors_end>:
      c4:	11 24       	eor	r1, r1
      c6:	1f be       	out	0x3f, r1	; 63
      c8:	cf ef       	ldi	r28, 0xFF	; 255
      ca:	d0 e1       	ldi	r29, 0x10	; 16
      cc:	de bf       	out	0x3e, r29	; 62
      ce:	cd bf       	out	0x3d, r28	; 61

000000d0 <__do_copy_data>:
      d0:	15 e0       	ldi	r17, 0x05	; 5
      d2:	a0 e0       	ldi	r26, 0x00	; 0
      d4:	b1 e0       	ldi	r27, 0x01	; 1
      d6:	e6 e7       	ldi	r30, 0x76	; 118
      d8:	fd e1       	ldi	r31, 0x1D	; 29
      da:	02 c0       	rjmp	.+4      	; 0xe0 <__do_copy_data+0x10>
      dc:	05 90       	lpm	r0, Z+
      de:	0d 92       	st	X+, r0
      e0:	ae 3b       	cpi	r26, 0xBE	; 190
      e2:	b1 07       	cpc	r27, r17
      e4:	d9 f7       	brne	.-10     	; 0xdc <__do_copy_data+0xc>

000000e6 <__do_clear_bss>:
      e6:	26 e0       	ldi	r18, 0x06	; 6
      e8:	ae eb       	ldi	r26, 0xBE	; 190
      ea:	b5 e0       	ldi	r27, 0x05	; 5
      ec:	01 c0       	rjmp	.+2      	; 0xf0 <.do_clear_bss_start>

000000ee <.do_clear_bss_loop>:
      ee:	1d 92       	st	X+, r1

000000f0 <.do_clear_bss_start>:
      f0:	af 34       	cpi	r26, 0x4F	; 79
      f2:	b2 07       	cpc	r27, r18
      f4:	e1 f7       	brne	.-8      	; 0xee <.do_clear_bss_loop>
      f6:	0e 94 af 04 	call	0x95e	; 0x95e <main>
      fa:	0c 94 b9 0e 	jmp	0x1d72	; 0x1d72 <_exit>

000000fe <__bad_interrupt>:
      fe:	0c 94 00 00 	jmp	0	; 0x0 <__vectors>

00000102 <get_DIP_Switch>:
u8 uart_str_count = 0;
char uart_string[UART_MAXSTRLEN + 1] = "";
char uart_string_send[UART_MAXSTRLEN + 1] = "";

u8 get_DIP_Switch(void)
{
     102:	cf 93       	push	r28
     104:	df 93       	push	r29
     106:	00 d0       	rcall	.+0      	; 0x108 <get_DIP_Switch+0x6>
     108:	1f 92       	push	r1
     10a:	cd b7       	in	r28, 0x3d	; 61
     10c:	de b7       	in	r29, 0x3e	; 62
	u8 DIP_Result=0;
     10e:	19 82       	std	Y+1, r1	; 0x01
	int j;
	
	PORTA |= 0x20;	//PA5=High Load
     110:	82 e2       	ldi	r24, 0x22	; 34
     112:	90 e0       	ldi	r25, 0x00	; 0
     114:	22 e2       	ldi	r18, 0x22	; 34
     116:	30 e0       	ldi	r19, 0x00	; 0
     118:	f9 01       	movw	r30, r18
     11a:	20 81       	ld	r18, Z
     11c:	20 62       	ori	r18, 0x20	; 32
     11e:	fc 01       	movw	r30, r24
     120:	20 83       	st	Z, r18
	PORTA &= 0xDF;	//PA5=Low Load
     122:	82 e2       	ldi	r24, 0x22	; 34
     124:	90 e0       	ldi	r25, 0x00	; 0
     126:	22 e2       	ldi	r18, 0x22	; 34
     128:	30 e0       	ldi	r19, 0x00	; 0
     12a:	f9 01       	movw	r30, r18
     12c:	20 81       	ld	r18, Z
     12e:	2f 7d       	andi	r18, 0xDF	; 223
     130:	fc 01       	movw	r30, r24
     132:	20 83       	st	Z, r18
	PORTA |= 0x20;	//PA5=High --> Load an SRG
     134:	82 e2       	ldi	r24, 0x22	; 34
     136:	90 e0       	ldi	r25, 0x00	; 0
     138:	22 e2       	ldi	r18, 0x22	; 34
     13a:	30 e0       	ldi	r19, 0x00	; 0
     13c:	f9 01       	movw	r30, r18
     13e:	20 81       	ld	r18, Z
     140:	20 62       	ori	r18, 0x20	; 32
     142:	fc 01       	movw	r30, r24
     144:	20 83       	st	Z, r18
	
	for (j=7;j>=0;j--)
     146:	87 e0       	ldi	r24, 0x07	; 7
     148:	90 e0       	ldi	r25, 0x00	; 0
     14a:	9b 83       	std	Y+3, r25	; 0x03
     14c:	8a 83       	std	Y+2, r24	; 0x02
     14e:	30 c0       	rjmp	.+96     	; 0x1b0 <get_DIP_Switch+0xae>
	{
		DIP_Result = DIP_Result | ((PINA & 0x80) >> (7-j)); //Bit an PA7 einlesen, MSB first
     150:	80 e2       	ldi	r24, 0x20	; 32
     152:	90 e0       	ldi	r25, 0x00	; 0
     154:	fc 01       	movw	r30, r24
     156:	80 81       	ld	r24, Z
     158:	88 2f       	mov	r24, r24
     15a:	90 e0       	ldi	r25, 0x00	; 0
     15c:	80 78       	andi	r24, 0x80	; 128
     15e:	99 27       	eor	r25, r25
     160:	47 e0       	ldi	r20, 0x07	; 7
     162:	50 e0       	ldi	r21, 0x00	; 0
     164:	2a 81       	ldd	r18, Y+2	; 0x02
     166:	3b 81       	ldd	r19, Y+3	; 0x03
     168:	ba 01       	movw	r22, r20
     16a:	62 1b       	sub	r22, r18
     16c:	73 0b       	sbc	r23, r19
     16e:	9b 01       	movw	r18, r22
     170:	02 c0       	rjmp	.+4      	; 0x176 <get_DIP_Switch+0x74>
     172:	95 95       	asr	r25
     174:	87 95       	ror	r24
     176:	2a 95       	dec	r18
     178:	e2 f7       	brpl	.-8      	; 0x172 <get_DIP_Switch+0x70>
     17a:	98 2f       	mov	r25, r24
     17c:	89 81       	ldd	r24, Y+1	; 0x01
     17e:	89 2b       	or	r24, r25
     180:	89 83       	std	Y+1, r24	; 0x01
		PORTA &= 0xBF;	//PA6=Low Clk
     182:	82 e2       	ldi	r24, 0x22	; 34
     184:	90 e0       	ldi	r25, 0x00	; 0
     186:	22 e2       	ldi	r18, 0x22	; 34
     188:	30 e0       	ldi	r19, 0x00	; 0
     18a:	f9 01       	movw	r30, r18
     18c:	20 81       	ld	r18, Z
     18e:	2f 7b       	andi	r18, 0xBF	; 191
     190:	fc 01       	movw	r30, r24
     192:	20 83       	st	Z, r18
		PORTA |= 0x40;	//PA6=High --> steigende Flanke an Clk von SRG
     194:	82 e2       	ldi	r24, 0x22	; 34
     196:	90 e0       	ldi	r25, 0x00	; 0
     198:	22 e2       	ldi	r18, 0x22	; 34
     19a:	30 e0       	ldi	r19, 0x00	; 0
     19c:	f9 01       	movw	r30, r18
     19e:	20 81       	ld	r18, Z
     1a0:	20 64       	ori	r18, 0x40	; 64
     1a2:	fc 01       	movw	r30, r24
     1a4:	20 83       	st	Z, r18
	
	PORTA |= 0x20;	//PA5=High Load
	PORTA &= 0xDF;	//PA5=Low Load
	PORTA |= 0x20;	//PA5=High --> Load an SRG
	
	for (j=7;j>=0;j--)
     1a6:	8a 81       	ldd	r24, Y+2	; 0x02
     1a8:	9b 81       	ldd	r25, Y+3	; 0x03
     1aa:	01 97       	sbiw	r24, 0x01	; 1
     1ac:	9b 83       	std	Y+3, r25	; 0x03
     1ae:	8a 83       	std	Y+2, r24	; 0x02
     1b0:	8a 81       	ldd	r24, Y+2	; 0x02
     1b2:	9b 81       	ldd	r25, Y+3	; 0x03
     1b4:	99 23       	and	r25, r25
     1b6:	64 f6       	brge	.-104    	; 0x150 <get_DIP_Switch+0x4e>
	{
		DIP_Result = DIP_Result | ((PINA & 0x80) >> (7-j)); //Bit an PA7 einlesen, MSB first
		PORTA &= 0xBF;	//PA6=Low Clk
		PORTA |= 0x40;	//PA6=High --> steigende Flanke an Clk von SRG
	}
	return(DIP_Result);
     1b8:	89 81       	ldd	r24, Y+1	; 0x01
}
     1ba:	0f 90       	pop	r0
     1bc:	0f 90       	pop	r0
     1be:	0f 90       	pop	r0
     1c0:	df 91       	pop	r29
     1c2:	cf 91       	pop	r28
     1c4:	08 95       	ret

000001c6 <get_LCD_Taster>:

u8 get_LCD_Taster(void)
{
     1c6:	cf 93       	push	r28
     1c8:	df 93       	push	r29
     1ca:	1f 92       	push	r1
     1cc:	cd b7       	in	r28, 0x3d	; 61
     1ce:	de b7       	in	r29, 0x3e	; 62
	u8 LCD_Taster;
	
	//Initialisierung Port B
	PORTB &= 0xF0;			//4xNull ausgeben um Eingangskapazität zu "leeren", diese Pins werden im nächsten Befehl zu Eingängen umgeschaltet
     1d0:	85 e2       	ldi	r24, 0x25	; 37
     1d2:	90 e0       	ldi	r25, 0x00	; 0
     1d4:	25 e2       	ldi	r18, 0x25	; 37
     1d6:	30 e0       	ldi	r19, 0x00	; 0
     1d8:	f9 01       	movw	r30, r18
     1da:	20 81       	ld	r18, Z
     1dc:	20 7f       	andi	r18, 0xF0	; 240
     1de:	fc 01       	movw	r30, r24
     1e0:	20 83       	st	Z, r18

	DDRB  =  0xF0;			// PB0...PB3 neu als Inputs (4 Taster)
     1e2:	84 e2       	ldi	r24, 0x24	; 36
     1e4:	90 e0       	ldi	r25, 0x00	; 0
     1e6:	20 ef       	ldi	r18, 0xF0	; 240
     1e8:	fc 01       	movw	r30, r24
     1ea:	20 83       	st	Z, r18
	...
	asm  ("nop");			//Zeit für Synchronisation
	asm  ("nop");			//Zeit für Synchronisation
	asm  ("nop");			//Zeit für Synchronisation
	asm  ("nop");			//Zeit für Synchronisation
	asm  ("nop");			//Zeit für Synchronisation
	LCD_Taster = PINB & 0x0F;
     200:	83 e2       	ldi	r24, 0x23	; 35
     202:	90 e0       	ldi	r25, 0x00	; 0
     204:	fc 01       	movw	r30, r24
     206:	80 81       	ld	r24, Z
     208:	8f 70       	andi	r24, 0x0F	; 15
     20a:	89 83       	std	Y+1, r24	; 0x01
	//Initialisierung Port B
	DDRB  =  0xFF;			// jetzt wieder LED Port, alles Outputs
     20c:	84 e2       	ldi	r24, 0x24	; 36
     20e:	90 e0       	ldi	r25, 0x00	; 0
     210:	2f ef       	ldi	r18, 0xFF	; 255
     212:	fc 01       	movw	r30, r24
     214:	20 83       	st	Z, r18
	return(LCD_Taster);
     216:	89 81       	ldd	r24, Y+1	; 0x01
}
     218:	0f 90       	pop	r0
     21a:	df 91       	pop	r29
     21c:	cf 91       	pop	r28
     21e:	08 95       	ret

00000220 <init_ADC>:

void init_ADC(void)
{
     220:	cf 93       	push	r28
     222:	df 93       	push	r29
     224:	cd b7       	in	r28, 0x3d	; 61
     226:	de b7       	in	r29, 0x3e	; 62
	// Initialisierung des ADC's
	ADCSRA |=  (1 << ADEN);									//A/D-Wandler Enable
     228:	8a e7       	ldi	r24, 0x7A	; 122
     22a:	90 e0       	ldi	r25, 0x00	; 0
     22c:	2a e7       	ldi	r18, 0x7A	; 122
     22e:	30 e0       	ldi	r19, 0x00	; 0
     230:	f9 01       	movw	r30, r18
     232:	20 81       	ld	r18, Z
     234:	20 68       	ori	r18, 0x80	; 128
     236:	fc 01       	movw	r30, r24
     238:	20 83       	st	Z, r18
	ADMUX  |= (1 << REFS0);									//Vcc als Referenz
     23a:	8c e7       	ldi	r24, 0x7C	; 124
     23c:	90 e0       	ldi	r25, 0x00	; 0
     23e:	2c e7       	ldi	r18, 0x7C	; 124
     240:	30 e0       	ldi	r19, 0x00	; 0
     242:	f9 01       	movw	r30, r18
     244:	20 81       	ld	r18, Z
     246:	20 64       	ori	r18, 0x40	; 64
     248:	fc 01       	movw	r30, r24
     24a:	20 83       	st	Z, r18
	ADCSRA |= (1 << ADPS0) | (1 << ADPS1) | (1 << ADPS2);	//Clock=CPU/128
     24c:	8a e7       	ldi	r24, 0x7A	; 122
     24e:	90 e0       	ldi	r25, 0x00	; 0
     250:	2a e7       	ldi	r18, 0x7A	; 122
     252:	30 e0       	ldi	r19, 0x00	; 0
     254:	f9 01       	movw	r30, r18
     256:	20 81       	ld	r18, Z
     258:	27 60       	ori	r18, 0x07	; 7
     25a:	fc 01       	movw	r30, r24
     25c:	20 83       	st	Z, r18
															//ADC_Clk=125kHz(8us)
															//13 Clks->13x8=104us
}
     25e:	df 91       	pop	r29
     260:	cf 91       	pop	r28
     262:	08 95       	ret

00000264 <get_ADC_Channel>:

u16 get_ADC_Channel(u8 Kanal)
{	u16 AD_Result;
     264:	cf 93       	push	r28
     266:	df 93       	push	r29
     268:	00 d0       	rcall	.+0      	; 0x26a <get_ADC_Channel+0x6>
     26a:	1f 92       	push	r1
     26c:	cd b7       	in	r28, 0x3d	; 61
     26e:	de b7       	in	r29, 0x3e	; 62
     270:	8b 83       	std	Y+3, r24	; 0x03

	ADMUX = (ADMUX & 0xF8) | Kanal;	//Mux Bits löschen, neuen Kanal setzen
     272:	8c e7       	ldi	r24, 0x7C	; 124
     274:	90 e0       	ldi	r25, 0x00	; 0
     276:	2c e7       	ldi	r18, 0x7C	; 124
     278:	30 e0       	ldi	r19, 0x00	; 0
     27a:	f9 01       	movw	r30, r18
     27c:	20 81       	ld	r18, Z
     27e:	32 2f       	mov	r19, r18
     280:	38 7f       	andi	r19, 0xF8	; 248
     282:	2b 81       	ldd	r18, Y+3	; 0x03
     284:	23 2b       	or	r18, r19
     286:	fc 01       	movw	r30, r24
     288:	20 83       	st	Z, r18
	ADCSRA |=  (1 << ADSC);			//Start, Single Mode
     28a:	8a e7       	ldi	r24, 0x7A	; 122
     28c:	90 e0       	ldi	r25, 0x00	; 0
     28e:	2a e7       	ldi	r18, 0x7A	; 122
     290:	30 e0       	ldi	r19, 0x00	; 0
     292:	f9 01       	movw	r30, r18
     294:	20 81       	ld	r18, Z
     296:	20 64       	ori	r18, 0x40	; 64
     298:	fc 01       	movw	r30, r24
     29a:	20 83       	st	Z, r18
	while(ADCSRA & (1 << ADSC))		//Warten, bis Messung fertig ist.
     29c:	00 00       	nop
     29e:	8a e7       	ldi	r24, 0x7A	; 122
     2a0:	90 e0       	ldi	r25, 0x00	; 0
     2a2:	fc 01       	movw	r30, r24
     2a4:	80 81       	ld	r24, Z
     2a6:	88 2f       	mov	r24, r24
     2a8:	90 e0       	ldi	r25, 0x00	; 0
     2aa:	80 74       	andi	r24, 0x40	; 64
     2ac:	99 27       	eor	r25, r25
     2ae:	00 97       	sbiw	r24, 0x00	; 0
     2b0:	b1 f7       	brne	.-20     	; 0x29e <get_ADC_Channel+0x3a>
	;
	AD_Result = ADCL + (ADCH << 8);	//ADCL zuerst lesen, dann erst ADCH!
     2b2:	88 e7       	ldi	r24, 0x78	; 120
     2b4:	90 e0       	ldi	r25, 0x00	; 0
     2b6:	fc 01       	movw	r30, r24
     2b8:	80 81       	ld	r24, Z
     2ba:	28 2f       	mov	r18, r24
     2bc:	30 e0       	ldi	r19, 0x00	; 0
     2be:	89 e7       	ldi	r24, 0x79	; 121
     2c0:	90 e0       	ldi	r25, 0x00	; 0
     2c2:	fc 01       	movw	r30, r24
     2c4:	80 81       	ld	r24, Z
     2c6:	88 2f       	mov	r24, r24
     2c8:	90 e0       	ldi	r25, 0x00	; 0
     2ca:	98 2f       	mov	r25, r24
     2cc:	88 27       	eor	r24, r24
     2ce:	82 0f       	add	r24, r18
     2d0:	93 1f       	adc	r25, r19
     2d2:	9a 83       	std	Y+2, r25	; 0x02
     2d4:	89 83       	std	Y+1, r24	; 0x01
	return(AD_Result);
     2d6:	89 81       	ldd	r24, Y+1	; 0x01
     2d8:	9a 81       	ldd	r25, Y+2	; 0x02
}
     2da:	0f 90       	pop	r0
     2dc:	0f 90       	pop	r0
     2de:	0f 90       	pop	r0
     2e0:	df 91       	pop	r29
     2e2:	cf 91       	pop	r28
     2e4:	08 95       	ret

000002e6 <init_UART0>:

void init_UART0(void)
{
     2e6:	cf 93       	push	r28
     2e8:	df 93       	push	r29
     2ea:	cd b7       	in	r28, 0x3d	; 61
     2ec:	de b7       	in	r29, 0x3e	; 62
	// Initialisierung UART0 (RxD0, TxD0)
	UBRR0 = 16;	//Bei 16MHZ und U2X0=1 --> 115k2 Baudrate
     2ee:	84 ec       	ldi	r24, 0xC4	; 196
     2f0:	90 e0       	ldi	r25, 0x00	; 0
     2f2:	20 e1       	ldi	r18, 0x10	; 16
     2f4:	30 e0       	ldi	r19, 0x00	; 0
     2f6:	fc 01       	movw	r30, r24
     2f8:	31 83       	std	Z+1, r19	; 0x01
     2fa:	20 83       	st	Z, r18
	UCSR0A |= (1 << U2X0);
     2fc:	80 ec       	ldi	r24, 0xC0	; 192
     2fe:	90 e0       	ldi	r25, 0x00	; 0
     300:	20 ec       	ldi	r18, 0xC0	; 192
     302:	30 e0       	ldi	r19, 0x00	; 0
     304:	f9 01       	movw	r30, r18
     306:	20 81       	ld	r18, Z
     308:	22 60       	ori	r18, 0x02	; 2
     30a:	fc 01       	movw	r30, r24
     30c:	20 83       	st	Z, r18
	//UCSR0C muss nicht initialisiert werden, Standardwerte: Asynchron, 8Databits,Noneparity, ein Stopbit
	UCSR0B |= (1 << RXCIE0) | (1 << RXEN0) | (1 << TXEN0); //TxD, RxD Enable und RxD Interrupt Enable
     30e:	81 ec       	ldi	r24, 0xC1	; 193
     310:	90 e0       	ldi	r25, 0x00	; 0
     312:	21 ec       	ldi	r18, 0xC1	; 193
     314:	30 e0       	ldi	r19, 0x00	; 0
     316:	f9 01       	movw	r30, r18
     318:	20 81       	ld	r18, Z
     31a:	28 69       	ori	r18, 0x98	; 152
     31c:	fc 01       	movw	r30, r24
     31e:	20 83       	st	Z, r18
}
     320:	df 91       	pop	r29
     322:	cf 91       	pop	r28
     324:	08 95       	ret

00000326 <send_Byte>:

void send_Byte(u8 val)
{
     326:	cf 93       	push	r28
     328:	df 93       	push	r29
     32a:	1f 92       	push	r1
     32c:	cd b7       	in	r28, 0x3d	; 61
     32e:	de b7       	in	r29, 0x3e	; 62
     330:	89 83       	std	Y+1, r24	; 0x01
	//Wait for empty Buffer
	while( !(UCSR0A & (1<<UDRE0)) )
     332:	00 00       	nop
     334:	80 ec       	ldi	r24, 0xC0	; 192
     336:	90 e0       	ldi	r25, 0x00	; 0
     338:	fc 01       	movw	r30, r24
     33a:	80 81       	ld	r24, Z
     33c:	88 2f       	mov	r24, r24
     33e:	90 e0       	ldi	r25, 0x00	; 0
     340:	80 72       	andi	r24, 0x20	; 32
     342:	99 27       	eor	r25, r25
     344:	00 97       	sbiw	r24, 0x00	; 0
     346:	b1 f3       	breq	.-20     	; 0x334 <send_Byte+0xe>
	;
	
	UDR0=val;	//Transmit starts
     348:	86 ec       	ldi	r24, 0xC6	; 198
     34a:	90 e0       	ldi	r25, 0x00	; 0
     34c:	29 81       	ldd	r18, Y+1	; 0x01
     34e:	fc 01       	movw	r30, r24
     350:	20 83       	st	Z, r18
}
     352:	0f 90       	pop	r0
     354:	df 91       	pop	r29
     356:	cf 91       	pop	r28
     358:	08 95       	ret

0000035a <XYZ_to_Display>:

void XYZ_to_Display(u16 Delay_LCD)
{
     35a:	cf 93       	push	r28
     35c:	df 93       	push	r29
     35e:	00 d0       	rcall	.+0      	; 0x360 <XYZ_to_Display+0x6>
     360:	cd b7       	in	r28, 0x3d	; 61
     362:	de b7       	in	r29, 0x3e	; 62
     364:	9a 83       	std	Y+2, r25	; 0x02
     366:	89 83       	std	Y+1, r24	; 0x01
	uart_str_complete = 1;	//String für Änderungen blockieren!
     368:	81 e0       	ldi	r24, 0x01	; 1
     36a:	80 93 27 06 	sts	0x0627, r24
	clear_lcd();
     36e:	0e 94 7a 0a 	call	0x14f4	; 0x14f4 <clear_lcd>
	ptr_Abschnitt = strtok(uart_string, trennzeichen);
     372:	62 e0       	ldi	r22, 0x02	; 2
     374:	71 e0       	ldi	r23, 0x01	; 1
     376:	83 ef       	ldi	r24, 0xF3	; 243
     378:	95 e0       	ldi	r25, 0x05	; 5
     37a:	0e 94 8a 0b 	call	0x1714	; 0x1714 <strtok>
     37e:	90 93 44 06 	sts	0x0644, r25
     382:	80 93 43 06 	sts	0x0643, r24
	while(ptr_Abschnitt != NULL)
     386:	1a c0       	rjmp	.+52     	; 0x3bc <XYZ_to_Display+0x62>
	{
		write_text_ram(k, 0, ptr_Abschnitt); //Ausgabe Array
     388:	80 91 43 06 	lds	r24, 0x0643
     38c:	90 91 44 06 	lds	r25, 0x0644
     390:	20 91 28 06 	lds	r18, 0x0628
     394:	ac 01       	movw	r20, r24
     396:	60 e0       	ldi	r22, 0x00	; 0
     398:	82 2f       	mov	r24, r18
     39a:	0e 94 2e 0a 	call	0x145c	; 0x145c <write_text_ram>
		k++;
     39e:	80 91 28 06 	lds	r24, 0x0628
     3a2:	8f 5f       	subi	r24, 0xFF	; 255
     3a4:	80 93 28 06 	sts	0x0628, r24
		ptr_Abschnitt = strtok(NULL, trennzeichen);
     3a8:	62 e0       	ldi	r22, 0x02	; 2
     3aa:	71 e0       	ldi	r23, 0x01	; 1
     3ac:	80 e0       	ldi	r24, 0x00	; 0
     3ae:	90 e0       	ldi	r25, 0x00	; 0
     3b0:	0e 94 8a 0b 	call	0x1714	; 0x1714 <strtok>
     3b4:	90 93 44 06 	sts	0x0644, r25
     3b8:	80 93 43 06 	sts	0x0643, r24
void XYZ_to_Display(u16 Delay_LCD)
{
	uart_str_complete = 1;	//String für Änderungen blockieren!
	clear_lcd();
	ptr_Abschnitt = strtok(uart_string, trennzeichen);
	while(ptr_Abschnitt != NULL)
     3bc:	80 91 43 06 	lds	r24, 0x0643
     3c0:	90 91 44 06 	lds	r25, 0x0644
     3c4:	00 97       	sbiw	r24, 0x00	; 0
     3c6:	01 f7       	brne	.-64     	; 0x388 <XYZ_to_Display+0x2e>
		k++;
		ptr_Abschnitt = strtok(NULL, trennzeichen);
		//Jeder Aufruf gibt das Token zurück. Das Trennzeichen wird mit '\0' überschrieben.
		//Die Schleife läuft durch bis strtok() den NULL-Zeiger zurückliefert.
	}
	k=0;
     3c8:	10 92 28 06 	sts	0x0628, r1
	uart_str_complete = 0;
     3cc:	10 92 27 06 	sts	0x0627, r1
	wait_1ms(Delay_LCD);
     3d0:	89 81       	ldd	r24, Y+1	; 0x01
     3d2:	9a 81       	ldd	r25, Y+2	; 0x02
     3d4:	cc 01       	movw	r24, r24
     3d6:	a0 e0       	ldi	r26, 0x00	; 0
     3d8:	b0 e0       	ldi	r27, 0x00	; 0
     3da:	bc 01       	movw	r22, r24
     3dc:	cd 01       	movw	r24, r26
     3de:	0e 94 64 09 	call	0x12c8	; 0x12c8 <wait_1ms>
}
     3e2:	0f 90       	pop	r0
     3e4:	0f 90       	pop	r0
     3e6:	df 91       	pop	r29
     3e8:	cf 91       	pop	r28
     3ea:	08 95       	ret

000003ec <to_uARM>:

void to_uARM(char *_str)
{
     3ec:	cf 93       	push	r28
     3ee:	df 93       	push	r29
     3f0:	00 d0       	rcall	.+0      	; 0x3f2 <to_uARM+0x6>
     3f2:	cd b7       	in	r28, 0x3d	; 61
     3f4:	de b7       	in	r29, 0x3e	; 62
     3f6:	9a 83       	std	Y+2, r25	; 0x02
     3f8:	89 83       	std	Y+1, r24	; 0x01
	//for(m=0;m<UART_MAXSTRLEN+1;m++) //Array löschen nicht nötig!
		//uart_string[m]='\0';
	while (*_str)
     3fa:	0b c0       	rjmp	.+22     	; 0x412 <to_uARM+0x26>
    {   /* so lange *_str != '\0' also ungleich dem "String-Endezeichen(Terminator)" */
        send_Byte(*_str);
     3fc:	89 81       	ldd	r24, Y+1	; 0x01
     3fe:	9a 81       	ldd	r25, Y+2	; 0x02
     400:	fc 01       	movw	r30, r24
     402:	80 81       	ld	r24, Z
     404:	0e 94 93 01 	call	0x326	; 0x326 <send_Byte>
        _str++;
     408:	89 81       	ldd	r24, Y+1	; 0x01
     40a:	9a 81       	ldd	r25, Y+2	; 0x02
     40c:	01 96       	adiw	r24, 0x01	; 1
     40e:	9a 83       	std	Y+2, r25	; 0x02
     410:	89 83       	std	Y+1, r24	; 0x01

void to_uARM(char *_str)
{
	//for(m=0;m<UART_MAXSTRLEN+1;m++) //Array löschen nicht nötig!
		//uart_string[m]='\0';
	while (*_str)
     412:	89 81       	ldd	r24, Y+1	; 0x01
     414:	9a 81       	ldd	r25, Y+2	; 0x02
     416:	fc 01       	movw	r30, r24
     418:	80 81       	ld	r24, Z
     41a:	88 23       	and	r24, r24
     41c:	79 f7       	brne	.-34     	; 0x3fc <to_uARM+0x10>
    {   /* so lange *_str != '\0' also ungleich dem "String-Endezeichen(Terminator)" */
        send_Byte(*_str);
        _str++;
    }
	uart_str_complete = 0; //String freigeben um Antwort zu empfangen	
     41e:	10 92 27 06 	sts	0x0627, r1
	while (uart_str_complete == 0); //Warten bis Antwort erfolgt ist
     422:	00 00       	nop
     424:	80 91 27 06 	lds	r24, 0x0627
     428:	88 23       	and	r24, r24
     42a:	e1 f3       	breq	.-8      	; 0x424 <to_uARM+0x38>
	//XYZ_to_Display(2000); //Kann eingesetzt werden um die Kommunikation auf dem LCD anzuzeigen
						  //setzt dann uart_str_complete = 0
}
     42c:	0f 90       	pop	r0
     42e:	0f 90       	pop	r0
     430:	df 91       	pop	r29
     432:	cf 91       	pop	r28
     434:	08 95       	ret

00000436 <send_to_uArm>:

void send_to_uArm(char *str)
{
     436:	cf 93       	push	r28
     438:	df 93       	push	r29
     43a:	00 d0       	rcall	.+0      	; 0x43c <send_to_uArm+0x6>
     43c:	cd b7       	in	r28, 0x3d	; 61
     43e:	de b7       	in	r29, 0x3e	; 62
     440:	9a 83       	std	Y+2, r25	; 0x02
     442:	89 83       	std	Y+1, r24	; 0x01
	to_uARM(str);
     444:	89 81       	ldd	r24, Y+1	; 0x01
     446:	9a 81       	ldd	r25, Y+2	; 0x02
     448:	0e 94 f6 01 	call	0x3ec	; 0x3ec <to_uARM>
	to_uARM("M2200\n"); //uARM in moving? 1 Yes / 0 N0
     44c:	84 e0       	ldi	r24, 0x04	; 4
     44e:	91 e0       	ldi	r25, 0x01	; 1
     450:	0e 94 f6 01 	call	0x3ec	; 0x3ec <to_uARM>
	while(uart_string[4] == 0x31) //ASCII '1' --> moving
     454:	04 c0       	rjmp	.+8      	; 0x45e <send_to_uArm+0x28>
	{
		to_uARM("M2200\n"); //uARM in moving? 1 Yes / 0 N0
     456:	84 e0       	ldi	r24, 0x04	; 4
     458:	91 e0       	ldi	r25, 0x01	; 1
     45a:	0e 94 f6 01 	call	0x3ec	; 0x3ec <to_uARM>

void send_to_uArm(char *str)
{
	to_uARM(str);
	to_uARM("M2200\n"); //uARM in moving? 1 Yes / 0 N0
	while(uart_string[4] == 0x31) //ASCII '1' --> moving
     45e:	80 91 f7 05 	lds	r24, 0x05F7
     462:	81 33       	cpi	r24, 0x31	; 49
     464:	c1 f3       	breq	.-16     	; 0x456 <send_to_uArm+0x20>
	{
		to_uARM("M2200\n"); //uARM in moving? 1 Yes / 0 N0
	}
	to_uARM("P2220\n"); //Koordinaten abfragen
     466:	8b e0       	ldi	r24, 0x0B	; 11
     468:	91 e0       	ldi	r25, 0x01	; 1
     46a:	0e 94 f6 01 	call	0x3ec	; 0x3ec <to_uARM>
	XYZ_to_Display(0);	//Kann eingesetzt werden um die Kommunikation auf dem LCD anzuzeigen
     46e:	80 e0       	ldi	r24, 0x00	; 0
     470:	90 e0       	ldi	r25, 0x00	; 0
     472:	0e 94 ad 01 	call	0x35a	; 0x35a <XYZ_to_Display>
						//setzt dann uart_str_complete = 0
}
     476:	0f 90       	pop	r0
     478:	0f 90       	pop	r0
     47a:	df 91       	pop	r29
     47c:	cf 91       	pop	r28
     47e:	08 95       	ret

00000480 <uArm_goto_xyz>:

void uArm_goto_xyz(int x, int y, int z, unsigned int speed)
{
     480:	cf 93       	push	r28
     482:	df 93       	push	r29
     484:	cd b7       	in	r28, 0x3d	; 61
     486:	de b7       	in	r29, 0x3e	; 62
     488:	e8 97       	sbiw	r28, 0x38	; 56
     48a:	0f b6       	in	r0, 0x3f	; 63
     48c:	f8 94       	cli
     48e:	de bf       	out	0x3e, r29	; 62
     490:	0f be       	out	0x3f, r0	; 63
     492:	cd bf       	out	0x3d, r28	; 61
     494:	9a ab       	std	Y+50, r25	; 0x32
     496:	89 ab       	std	Y+49, r24	; 0x31
     498:	7c ab       	std	Y+52, r23	; 0x34
     49a:	6b ab       	std	Y+51, r22	; 0x33
     49c:	5e ab       	std	Y+54, r21	; 0x36
     49e:	4d ab       	std	Y+53, r20	; 0x35
     4a0:	38 af       	std	Y+56, r19	; 0x38
     4a2:	2f ab       	std	Y+55, r18	; 0x37
	char x_string[6];
	char y_string[6];
	char z_string[6];
	char speed_string[6];
	
	uart_string_send[0] = '\0';//WICHTIG!!!!!
     4a4:	10 92 c0 05 	sts	0x05C0, r1
     4a8:	89 a9       	ldd	r24, Y+49	; 0x31
     4aa:	9a a9       	ldd	r25, Y+50	; 0x32
     4ac:	9a 83       	std	Y+2, r25	; 0x02
     4ae:	89 83       	std	Y+1, r24	; 0x01
     4b0:	ce 01       	movw	r24, r28
     4b2:	49 96       	adiw	r24, 0x19	; 25
     4b4:	9c 83       	std	Y+4, r25	; 0x04
     4b6:	8b 83       	std	Y+3, r24	; 0x03
     4b8:	8a e0       	ldi	r24, 0x0A	; 10
     4ba:	90 e0       	ldi	r25, 0x00	; 0
     4bc:	9e 83       	std	Y+6, r25	; 0x06
     4be:	8d 83       	std	Y+5, r24	; 0x05
extern char *itoa(int val, char *s, int radix);
#else
extern __inline__ __ATTR_GNU_INLINE__
char *itoa (int __val, char *__s, int __radix)
{
    if (!__builtin_constant_p (__radix)) {
     4c0:	80 e0       	ldi	r24, 0x00	; 0
     4c2:	90 e0       	ldi	r25, 0x00	; 0
     4c4:	00 97       	sbiw	r24, 0x00	; 0
     4c6:	51 f4       	brne	.+20     	; 0x4dc <uArm_goto_xyz+0x5c>
	extern char *__itoa (int, char *, int);
	return __itoa (__val, __s, __radix);
     4c8:	4d 81       	ldd	r20, Y+5	; 0x05
     4ca:	5e 81       	ldd	r21, Y+6	; 0x06
     4cc:	2b 81       	ldd	r18, Y+3	; 0x03
     4ce:	3c 81       	ldd	r19, Y+4	; 0x04
     4d0:	89 81       	ldd	r24, Y+1	; 0x01
     4d2:	9a 81       	ldd	r25, Y+2	; 0x02
     4d4:	b9 01       	movw	r22, r18
     4d6:	0e 94 c1 0b 	call	0x1782	; 0x1782 <itoa>
     4da:	13 c0       	rjmp	.+38     	; 0x502 <uArm_goto_xyz+0x82>
    } else if (__radix < 2 || __radix > 36) {
     4dc:	8d 81       	ldd	r24, Y+5	; 0x05
     4de:	9e 81       	ldd	r25, Y+6	; 0x06
     4e0:	02 97       	sbiw	r24, 0x02	; 2
     4e2:	83 32       	cpi	r24, 0x23	; 35
     4e4:	91 05       	cpc	r25, r1
     4e6:	28 f0       	brcs	.+10     	; 0x4f2 <uArm_goto_xyz+0x72>
	*__s = 0;
     4e8:	8b 81       	ldd	r24, Y+3	; 0x03
     4ea:	9c 81       	ldd	r25, Y+4	; 0x04
     4ec:	fc 01       	movw	r30, r24
     4ee:	10 82       	st	Z, r1
     4f0:	08 c0       	rjmp	.+16     	; 0x502 <uArm_goto_xyz+0x82>
	return __s;
    } else {
	extern char *__itoa_ncheck (int, char *, unsigned char);
	return __itoa_ncheck (__val, __s, __radix);
     4f2:	4d 81       	ldd	r20, Y+5	; 0x05
     4f4:	2b 81       	ldd	r18, Y+3	; 0x03
     4f6:	3c 81       	ldd	r19, Y+4	; 0x04
     4f8:	89 81       	ldd	r24, Y+1	; 0x01
     4fa:	9a 81       	ldd	r25, Y+2	; 0x02
     4fc:	b9 01       	movw	r22, r18
     4fe:	0e 94 cc 0b 	call	0x1798	; 0x1798 <__itoa_ncheck>
     502:	8b a9       	ldd	r24, Y+51	; 0x33
     504:	9c a9       	ldd	r25, Y+52	; 0x34
     506:	98 87       	std	Y+8, r25	; 0x08
     508:	8f 83       	std	Y+7, r24	; 0x07
     50a:	ce 01       	movw	r24, r28
     50c:	4f 96       	adiw	r24, 0x1f	; 31
     50e:	9a 87       	std	Y+10, r25	; 0x0a
     510:	89 87       	std	Y+9, r24	; 0x09
     512:	8a e0       	ldi	r24, 0x0A	; 10
     514:	90 e0       	ldi	r25, 0x00	; 0
     516:	9c 87       	std	Y+12, r25	; 0x0c
     518:	8b 87       	std	Y+11, r24	; 0x0b
extern char *itoa(int val, char *s, int radix);
#else
extern __inline__ __ATTR_GNU_INLINE__
char *itoa (int __val, char *__s, int __radix)
{
    if (!__builtin_constant_p (__radix)) {
     51a:	80 e0       	ldi	r24, 0x00	; 0
     51c:	90 e0       	ldi	r25, 0x00	; 0
     51e:	00 97       	sbiw	r24, 0x00	; 0
     520:	51 f4       	brne	.+20     	; 0x536 <uArm_goto_xyz+0xb6>
	extern char *__itoa (int, char *, int);
	return __itoa (__val, __s, __radix);
     522:	4b 85       	ldd	r20, Y+11	; 0x0b
     524:	5c 85       	ldd	r21, Y+12	; 0x0c
     526:	29 85       	ldd	r18, Y+9	; 0x09
     528:	3a 85       	ldd	r19, Y+10	; 0x0a
     52a:	8f 81       	ldd	r24, Y+7	; 0x07
     52c:	98 85       	ldd	r25, Y+8	; 0x08
     52e:	b9 01       	movw	r22, r18
     530:	0e 94 c1 0b 	call	0x1782	; 0x1782 <itoa>
     534:	13 c0       	rjmp	.+38     	; 0x55c <uArm_goto_xyz+0xdc>
    } else if (__radix < 2 || __radix > 36) {
     536:	8b 85       	ldd	r24, Y+11	; 0x0b
     538:	9c 85       	ldd	r25, Y+12	; 0x0c
     53a:	02 97       	sbiw	r24, 0x02	; 2
     53c:	83 32       	cpi	r24, 0x23	; 35
     53e:	91 05       	cpc	r25, r1
     540:	28 f0       	brcs	.+10     	; 0x54c <uArm_goto_xyz+0xcc>
	*__s = 0;
     542:	89 85       	ldd	r24, Y+9	; 0x09
     544:	9a 85       	ldd	r25, Y+10	; 0x0a
     546:	fc 01       	movw	r30, r24
     548:	10 82       	st	Z, r1
     54a:	08 c0       	rjmp	.+16     	; 0x55c <uArm_goto_xyz+0xdc>
	return __s;
    } else {
	extern char *__itoa_ncheck (int, char *, unsigned char);
	return __itoa_ncheck (__val, __s, __radix);
     54c:	4b 85       	ldd	r20, Y+11	; 0x0b
     54e:	29 85       	ldd	r18, Y+9	; 0x09
     550:	3a 85       	ldd	r19, Y+10	; 0x0a
     552:	8f 81       	ldd	r24, Y+7	; 0x07
     554:	98 85       	ldd	r25, Y+8	; 0x08
     556:	b9 01       	movw	r22, r18
     558:	0e 94 cc 0b 	call	0x1798	; 0x1798 <__itoa_ncheck>
     55c:	8d a9       	ldd	r24, Y+53	; 0x35
     55e:	9e a9       	ldd	r25, Y+54	; 0x36
     560:	9e 87       	std	Y+14, r25	; 0x0e
     562:	8d 87       	std	Y+13, r24	; 0x0d
     564:	ce 01       	movw	r24, r28
     566:	85 96       	adiw	r24, 0x25	; 37
     568:	98 8b       	std	Y+16, r25	; 0x10
     56a:	8f 87       	std	Y+15, r24	; 0x0f
     56c:	8a e0       	ldi	r24, 0x0A	; 10
     56e:	90 e0       	ldi	r25, 0x00	; 0
     570:	9a 8b       	std	Y+18, r25	; 0x12
     572:	89 8b       	std	Y+17, r24	; 0x11
extern char *itoa(int val, char *s, int radix);
#else
extern __inline__ __ATTR_GNU_INLINE__
char *itoa (int __val, char *__s, int __radix)
{
    if (!__builtin_constant_p (__radix)) {
     574:	80 e0       	ldi	r24, 0x00	; 0
     576:	90 e0       	ldi	r25, 0x00	; 0
     578:	00 97       	sbiw	r24, 0x00	; 0
     57a:	51 f4       	brne	.+20     	; 0x590 <uArm_goto_xyz+0x110>
	extern char *__itoa (int, char *, int);
	return __itoa (__val, __s, __radix);
     57c:	49 89       	ldd	r20, Y+17	; 0x11
     57e:	5a 89       	ldd	r21, Y+18	; 0x12
     580:	2f 85       	ldd	r18, Y+15	; 0x0f
     582:	38 89       	ldd	r19, Y+16	; 0x10
     584:	8d 85       	ldd	r24, Y+13	; 0x0d
     586:	9e 85       	ldd	r25, Y+14	; 0x0e
     588:	b9 01       	movw	r22, r18
     58a:	0e 94 c1 0b 	call	0x1782	; 0x1782 <itoa>
     58e:	13 c0       	rjmp	.+38     	; 0x5b6 <uArm_goto_xyz+0x136>
    } else if (__radix < 2 || __radix > 36) {
     590:	89 89       	ldd	r24, Y+17	; 0x11
     592:	9a 89       	ldd	r25, Y+18	; 0x12
     594:	02 97       	sbiw	r24, 0x02	; 2
     596:	83 32       	cpi	r24, 0x23	; 35
     598:	91 05       	cpc	r25, r1
     59a:	28 f0       	brcs	.+10     	; 0x5a6 <uArm_goto_xyz+0x126>
	*__s = 0;
     59c:	8f 85       	ldd	r24, Y+15	; 0x0f
     59e:	98 89       	ldd	r25, Y+16	; 0x10
     5a0:	fc 01       	movw	r30, r24
     5a2:	10 82       	st	Z, r1
     5a4:	08 c0       	rjmp	.+16     	; 0x5b6 <uArm_goto_xyz+0x136>
	return __s;
    } else {
	extern char *__itoa_ncheck (int, char *, unsigned char);
	return __itoa_ncheck (__val, __s, __radix);
     5a6:	49 89       	ldd	r20, Y+17	; 0x11
     5a8:	2f 85       	ldd	r18, Y+15	; 0x0f
     5aa:	38 89       	ldd	r19, Y+16	; 0x10
     5ac:	8d 85       	ldd	r24, Y+13	; 0x0d
     5ae:	9e 85       	ldd	r25, Y+14	; 0x0e
     5b0:	b9 01       	movw	r22, r18
     5b2:	0e 94 cc 0b 	call	0x1798	; 0x1798 <__itoa_ncheck>
	itoa(x,x_string,10); //integer in String wandeln 10er System
	itoa(y,y_string,10);
	itoa(z,z_string,10);
	itoa(speed,speed_string,10);	
     5b6:	8f a9       	ldd	r24, Y+55	; 0x37
     5b8:	98 ad       	ldd	r25, Y+56	; 0x38
     5ba:	9c 8b       	std	Y+20, r25	; 0x14
     5bc:	8b 8b       	std	Y+19, r24	; 0x13
     5be:	ce 01       	movw	r24, r28
     5c0:	8b 96       	adiw	r24, 0x2b	; 43
     5c2:	9e 8b       	std	Y+22, r25	; 0x16
     5c4:	8d 8b       	std	Y+21, r24	; 0x15
     5c6:	8a e0       	ldi	r24, 0x0A	; 10
     5c8:	90 e0       	ldi	r25, 0x00	; 0
     5ca:	98 8f       	std	Y+24, r25	; 0x18
     5cc:	8f 8b       	std	Y+23, r24	; 0x17
extern char *itoa(int val, char *s, int radix);
#else
extern __inline__ __ATTR_GNU_INLINE__
char *itoa (int __val, char *__s, int __radix)
{
    if (!__builtin_constant_p (__radix)) {
     5ce:	80 e0       	ldi	r24, 0x00	; 0
     5d0:	90 e0       	ldi	r25, 0x00	; 0
     5d2:	00 97       	sbiw	r24, 0x00	; 0
     5d4:	51 f4       	brne	.+20     	; 0x5ea <uArm_goto_xyz+0x16a>
	extern char *__itoa (int, char *, int);
	return __itoa (__val, __s, __radix);
     5d6:	4f 89       	ldd	r20, Y+23	; 0x17
     5d8:	58 8d       	ldd	r21, Y+24	; 0x18
     5da:	2d 89       	ldd	r18, Y+21	; 0x15
     5dc:	3e 89       	ldd	r19, Y+22	; 0x16
     5de:	8b 89       	ldd	r24, Y+19	; 0x13
     5e0:	9c 89       	ldd	r25, Y+20	; 0x14
     5e2:	b9 01       	movw	r22, r18
     5e4:	0e 94 c1 0b 	call	0x1782	; 0x1782 <itoa>
     5e8:	13 c0       	rjmp	.+38     	; 0x610 <uArm_goto_xyz+0x190>
    } else if (__radix < 2 || __radix > 36) {
     5ea:	8f 89       	ldd	r24, Y+23	; 0x17
     5ec:	98 8d       	ldd	r25, Y+24	; 0x18
     5ee:	02 97       	sbiw	r24, 0x02	; 2
     5f0:	83 32       	cpi	r24, 0x23	; 35
     5f2:	91 05       	cpc	r25, r1
     5f4:	28 f0       	brcs	.+10     	; 0x600 <uArm_goto_xyz+0x180>
	*__s = 0;
     5f6:	8d 89       	ldd	r24, Y+21	; 0x15
     5f8:	9e 89       	ldd	r25, Y+22	; 0x16
     5fa:	fc 01       	movw	r30, r24
     5fc:	10 82       	st	Z, r1
     5fe:	08 c0       	rjmp	.+16     	; 0x610 <uArm_goto_xyz+0x190>
	return __s;
    } else {
	extern char *__itoa_ncheck (int, char *, unsigned char);
	return __itoa_ncheck (__val, __s, __radix);
     600:	4f 89       	ldd	r20, Y+23	; 0x17
     602:	2d 89       	ldd	r18, Y+21	; 0x15
     604:	3e 89       	ldd	r19, Y+22	; 0x16
     606:	8b 89       	ldd	r24, Y+19	; 0x13
     608:	9c 89       	ldd	r25, Y+20	; 0x14
     60a:	b9 01       	movw	r22, r18
     60c:	0e 94 cc 0b 	call	0x1798	; 0x1798 <__itoa_ncheck>
	strcat(uart_string_send,"G0 X"); //String verketten
     610:	80 ec       	ldi	r24, 0xC0	; 192
     612:	95 e0       	ldi	r25, 0x05	; 5
     614:	9c 01       	movw	r18, r24
     616:	f9 01       	movw	r30, r18
     618:	01 90       	ld	r0, Z+
     61a:	00 20       	and	r0, r0
     61c:	e9 f7       	brne	.-6      	; 0x618 <uArm_goto_xyz+0x198>
     61e:	cf 01       	movw	r24, r30
     620:	01 97       	sbiw	r24, 0x01	; 1
     622:	82 1b       	sub	r24, r18
     624:	93 0b       	sbc	r25, r19
     626:	80 54       	subi	r24, 0x40	; 64
     628:	9a 4f       	sbci	r25, 0xFA	; 250
     62a:	25 e0       	ldi	r18, 0x05	; 5
     62c:	e2 e1       	ldi	r30, 0x12	; 18
     62e:	f1 e0       	ldi	r31, 0x01	; 1
     630:	dc 01       	movw	r26, r24
     632:	01 90       	ld	r0, Z+
     634:	0d 92       	st	X+, r0
     636:	2a 95       	dec	r18
     638:	e1 f7       	brne	.-8      	; 0x632 <uArm_goto_xyz+0x1b2>
	strcat(uart_string_send,x_string);
     63a:	ce 01       	movw	r24, r28
     63c:	49 96       	adiw	r24, 0x19	; 25
     63e:	bc 01       	movw	r22, r24
     640:	80 ec       	ldi	r24, 0xC0	; 192
     642:	95 e0       	ldi	r25, 0x05	; 5
     644:	0e 94 8f 0b 	call	0x171e	; 0x171e <strcat>
	strcat(uart_string_send," Y");
     648:	80 ec       	ldi	r24, 0xC0	; 192
     64a:	95 e0       	ldi	r25, 0x05	; 5
     64c:	9c 01       	movw	r18, r24
     64e:	f9 01       	movw	r30, r18
     650:	01 90       	ld	r0, Z+
     652:	00 20       	and	r0, r0
     654:	e9 f7       	brne	.-6      	; 0x650 <uArm_goto_xyz+0x1d0>
     656:	cf 01       	movw	r24, r30
     658:	01 97       	sbiw	r24, 0x01	; 1
     65a:	82 1b       	sub	r24, r18
     65c:	93 0b       	sbc	r25, r19
     65e:	9c 01       	movw	r18, r24
     660:	20 54       	subi	r18, 0x40	; 64
     662:	3a 4f       	sbci	r19, 0xFA	; 250
     664:	80 e2       	ldi	r24, 0x20	; 32
     666:	99 e5       	ldi	r25, 0x59	; 89
     668:	a0 e0       	ldi	r26, 0x00	; 0
     66a:	f9 01       	movw	r30, r18
     66c:	80 83       	st	Z, r24
     66e:	91 83       	std	Z+1, r25	; 0x01
     670:	a2 83       	std	Z+2, r26	; 0x02
	strcat(uart_string_send,y_string);
     672:	ce 01       	movw	r24, r28
     674:	4f 96       	adiw	r24, 0x1f	; 31
     676:	bc 01       	movw	r22, r24
     678:	80 ec       	ldi	r24, 0xC0	; 192
     67a:	95 e0       	ldi	r25, 0x05	; 5
     67c:	0e 94 8f 0b 	call	0x171e	; 0x171e <strcat>
	strcat(uart_string_send," Z");
     680:	80 ec       	ldi	r24, 0xC0	; 192
     682:	95 e0       	ldi	r25, 0x05	; 5
     684:	9c 01       	movw	r18, r24
     686:	f9 01       	movw	r30, r18
     688:	01 90       	ld	r0, Z+
     68a:	00 20       	and	r0, r0
     68c:	e9 f7       	brne	.-6      	; 0x688 <uArm_goto_xyz+0x208>
     68e:	cf 01       	movw	r24, r30
     690:	01 97       	sbiw	r24, 0x01	; 1
     692:	82 1b       	sub	r24, r18
     694:	93 0b       	sbc	r25, r19
     696:	9c 01       	movw	r18, r24
     698:	20 54       	subi	r18, 0x40	; 64
     69a:	3a 4f       	sbci	r19, 0xFA	; 250
     69c:	80 e2       	ldi	r24, 0x20	; 32
     69e:	9a e5       	ldi	r25, 0x5A	; 90
     6a0:	a0 e0       	ldi	r26, 0x00	; 0
     6a2:	f9 01       	movw	r30, r18
     6a4:	80 83       	st	Z, r24
     6a6:	91 83       	std	Z+1, r25	; 0x01
     6a8:	a2 83       	std	Z+2, r26	; 0x02
	strcat(uart_string_send,z_string);
     6aa:	ce 01       	movw	r24, r28
     6ac:	85 96       	adiw	r24, 0x25	; 37
     6ae:	bc 01       	movw	r22, r24
     6b0:	80 ec       	ldi	r24, 0xC0	; 192
     6b2:	95 e0       	ldi	r25, 0x05	; 5
     6b4:	0e 94 8f 0b 	call	0x171e	; 0x171e <strcat>
	strcat(uart_string_send," F");		
     6b8:	80 ec       	ldi	r24, 0xC0	; 192
     6ba:	95 e0       	ldi	r25, 0x05	; 5
     6bc:	9c 01       	movw	r18, r24
     6be:	f9 01       	movw	r30, r18
     6c0:	01 90       	ld	r0, Z+
     6c2:	00 20       	and	r0, r0
     6c4:	e9 f7       	brne	.-6      	; 0x6c0 <uArm_goto_xyz+0x240>
     6c6:	cf 01       	movw	r24, r30
     6c8:	01 97       	sbiw	r24, 0x01	; 1
     6ca:	82 1b       	sub	r24, r18
     6cc:	93 0b       	sbc	r25, r19
     6ce:	9c 01       	movw	r18, r24
     6d0:	20 54       	subi	r18, 0x40	; 64
     6d2:	3a 4f       	sbci	r19, 0xFA	; 250
     6d4:	80 e2       	ldi	r24, 0x20	; 32
     6d6:	96 e4       	ldi	r25, 0x46	; 70
     6d8:	a0 e0       	ldi	r26, 0x00	; 0
     6da:	f9 01       	movw	r30, r18
     6dc:	80 83       	st	Z, r24
     6de:	91 83       	std	Z+1, r25	; 0x01
     6e0:	a2 83       	std	Z+2, r26	; 0x02
	strcat(uart_string_send,speed_string);
     6e2:	ce 01       	movw	r24, r28
     6e4:	8b 96       	adiw	r24, 0x2b	; 43
     6e6:	bc 01       	movw	r22, r24
     6e8:	80 ec       	ldi	r24, 0xC0	; 192
     6ea:	95 e0       	ldi	r25, 0x05	; 5
     6ec:	0e 94 8f 0b 	call	0x171e	; 0x171e <strcat>
	strcat(uart_string_send,"\n");		
     6f0:	80 ec       	ldi	r24, 0xC0	; 192
     6f2:	95 e0       	ldi	r25, 0x05	; 5
     6f4:	9c 01       	movw	r18, r24
     6f6:	f9 01       	movw	r30, r18
     6f8:	01 90       	ld	r0, Z+
     6fa:	00 20       	and	r0, r0
     6fc:	e9 f7       	brne	.-6      	; 0x6f8 <uArm_goto_xyz+0x278>
     6fe:	cf 01       	movw	r24, r30
     700:	01 97       	sbiw	r24, 0x01	; 1
     702:	82 1b       	sub	r24, r18
     704:	93 0b       	sbc	r25, r19
     706:	80 54       	subi	r24, 0x40	; 64
     708:	9a 4f       	sbci	r25, 0xFA	; 250
     70a:	2a e0       	ldi	r18, 0x0A	; 10
     70c:	30 e0       	ldi	r19, 0x00	; 0
     70e:	fc 01       	movw	r30, r24
     710:	31 83       	std	Z+1, r19	; 0x01
     712:	20 83       	st	Z, r18
	wait_1ms(100); //optional für ruhigere Bewegungen und LCD Display
     714:	64 e6       	ldi	r22, 0x64	; 100
     716:	70 e0       	ldi	r23, 0x00	; 0
     718:	80 e0       	ldi	r24, 0x00	; 0
     71a:	90 e0       	ldi	r25, 0x00	; 0
     71c:	0e 94 64 09 	call	0x12c8	; 0x12c8 <wait_1ms>
	send_to_uArm(uart_string_send);	
     720:	80 ec       	ldi	r24, 0xC0	; 192
     722:	95 e0       	ldi	r25, 0x05	; 5
     724:	0e 94 1b 02 	call	0x436	; 0x436 <send_to_uArm>
}
     728:	e8 96       	adiw	r28, 0x38	; 56
     72a:	0f b6       	in	r0, 0x3f	; 63
     72c:	f8 94       	cli
     72e:	de bf       	out	0x3e, r29	; 62
     730:	0f be       	out	0x3f, r0	; 63
     732:	cd bf       	out	0x3d, r28	; 61
     734:	df 91       	pop	r29
     736:	cf 91       	pop	r28
     738:	08 95       	ret

0000073a <Get_uArm_Koordinate>:

int Get_uArm_Koordinate(char Achse)
{
     73a:	cf 93       	push	r28
     73c:	df 93       	push	r29
     73e:	cd b7       	in	r28, 0x3d	; 61
     740:	de b7       	in	r29, 0x3e	; 62
     742:	27 97       	sbiw	r28, 0x07	; 7
     744:	0f b6       	in	r0, 0x3f	; 63
     746:	f8 94       	cli
     748:	de bf       	out	0x3e, r29	; 62
     74a:	0f be       	out	0x3f, r0	; 63
     74c:	cd bf       	out	0x3d, r28	; 61
     74e:	8f 83       	std	Y+7, r24	; 0x07
	double Wert_tmp;
	int Wert;
	
	to_uARM("P2220\n"); //Koordinaten abfragen	
     750:	8b e0       	ldi	r24, 0x0B	; 11
     752:	91 e0       	ldi	r25, 0x01	; 1
     754:	0e 94 f6 01 	call	0x3ec	; 0x3ec <to_uARM>
	uart_str_complete = 1;	//String für Änderungen blockieren!
     758:	81 e0       	ldi	r24, 0x01	; 1
     75a:	80 93 27 06 	sts	0x0627, r24
	//clear_lcd();
	ptr_Abschnitt = strtok(uart_string, trennzeichen);
     75e:	62 e0       	ldi	r22, 0x02	; 2
     760:	71 e0       	ldi	r23, 0x01	; 1
     762:	83 ef       	ldi	r24, 0xF3	; 243
     764:	95 e0       	ldi	r25, 0x05	; 5
     766:	0e 94 8a 0b 	call	0x1714	; 0x1714 <strtok>
     76a:	90 93 44 06 	sts	0x0644, r25
     76e:	80 93 43 06 	sts	0x0643, r24
	k=0;
     772:	10 92 28 06 	sts	0x0628, r1
	while(ptr_Abschnitt != NULL)
     776:	92 c0       	rjmp	.+292    	; 0x89c <Get_uArm_Koordinate+0x162>
	{
		//write_text_ram(k, 0, ptr_Abschnitt); //Ausgabe Array
		switch(Achse)
     778:	8f 81       	ldd	r24, Y+7	; 0x07
     77a:	88 2f       	mov	r24, r24
     77c:	90 e0       	ldi	r25, 0x00	; 0
     77e:	89 35       	cpi	r24, 0x59	; 89
     780:	91 05       	cpc	r25, r1
     782:	79 f1       	breq	.+94     	; 0x7e2 <Get_uArm_Koordinate+0xa8>
     784:	8a 35       	cpi	r24, 0x5A	; 90
     786:	91 05       	cpc	r25, r1
     788:	09 f4       	brne	.+2      	; 0x78c <Get_uArm_Koordinate+0x52>
     78a:	52 c0       	rjmp	.+164    	; 0x830 <Get_uArm_Koordinate+0xf6>
     78c:	88 35       	cpi	r24, 0x58	; 88
     78e:	91 05       	cpc	r25, r1
     790:	09 f0       	breq	.+2      	; 0x794 <Get_uArm_Koordinate+0x5a>
							Wert_tmp=atof(++ptr_Abschnitt);//;atof(ptr_Abschnitt);
							Wert=(int)(Wert_tmp);
							return(Wert);
						}
						break;
			default:	break;																	
     792:	75 c0       	rjmp	.+234    	; 0x87e <Get_uArm_Koordinate+0x144>
	while(ptr_Abschnitt != NULL)
	{
		//write_text_ram(k, 0, ptr_Abschnitt); //Ausgabe Array
		switch(Achse)
		{
			case 'X':	if (k==1) //Abschnitt mit X
     794:	80 91 28 06 	lds	r24, 0x0628
     798:	81 30       	cpi	r24, 0x01	; 1
     79a:	11 f5       	brne	.+68     	; 0x7e0 <Get_uArm_Koordinate+0xa6>
						{
							Wert_tmp=atof(++ptr_Abschnitt);//;atof(ptr_Abschnitt);
     79c:	80 91 43 06 	lds	r24, 0x0643
     7a0:	90 91 44 06 	lds	r25, 0x0644
     7a4:	01 96       	adiw	r24, 0x01	; 1
     7a6:	90 93 44 06 	sts	0x0644, r25
     7aa:	80 93 43 06 	sts	0x0643, r24
     7ae:	80 91 43 06 	lds	r24, 0x0643
     7b2:	90 91 44 06 	lds	r25, 0x0644
     7b6:	0e 94 86 0b 	call	0x170c	; 0x170c <atof>
     7ba:	dc 01       	movw	r26, r24
     7bc:	cb 01       	movw	r24, r22
     7be:	89 83       	std	Y+1, r24	; 0x01
     7c0:	9a 83       	std	Y+2, r25	; 0x02
     7c2:	ab 83       	std	Y+3, r26	; 0x03
     7c4:	bc 83       	std	Y+4, r27	; 0x04
							Wert=(int)(Wert_tmp);
     7c6:	69 81       	ldd	r22, Y+1	; 0x01
     7c8:	7a 81       	ldd	r23, Y+2	; 0x02
     7ca:	8b 81       	ldd	r24, Y+3	; 0x03
     7cc:	9c 81       	ldd	r25, Y+4	; 0x04
     7ce:	0e 94 fb 0a 	call	0x15f6	; 0x15f6 <__fixsfsi>
     7d2:	dc 01       	movw	r26, r24
     7d4:	cb 01       	movw	r24, r22
     7d6:	9e 83       	std	Y+6, r25	; 0x06
     7d8:	8d 83       	std	Y+5, r24	; 0x05
							return(Wert);
     7da:	8d 81       	ldd	r24, Y+5	; 0x05
     7dc:	9e 81       	ldd	r25, Y+6	; 0x06
     7de:	69 c0       	rjmp	.+210    	; 0x8b2 <Get_uArm_Koordinate+0x178>
						}
						break;
     7e0:	4e c0       	rjmp	.+156    	; 0x87e <Get_uArm_Koordinate+0x144>
			case 'Y':	if (k==2) //Abschnitt mit Y
     7e2:	80 91 28 06 	lds	r24, 0x0628
     7e6:	82 30       	cpi	r24, 0x02	; 2
     7e8:	11 f5       	brne	.+68     	; 0x82e <Get_uArm_Koordinate+0xf4>
						{
							Wert_tmp=atof(++ptr_Abschnitt);//;atof(ptr_Abschnitt);
     7ea:	80 91 43 06 	lds	r24, 0x0643
     7ee:	90 91 44 06 	lds	r25, 0x0644
     7f2:	01 96       	adiw	r24, 0x01	; 1
     7f4:	90 93 44 06 	sts	0x0644, r25
     7f8:	80 93 43 06 	sts	0x0643, r24
     7fc:	80 91 43 06 	lds	r24, 0x0643
     800:	90 91 44 06 	lds	r25, 0x0644
     804:	0e 94 86 0b 	call	0x170c	; 0x170c <atof>
     808:	dc 01       	movw	r26, r24
     80a:	cb 01       	movw	r24, r22
     80c:	89 83       	std	Y+1, r24	; 0x01
     80e:	9a 83       	std	Y+2, r25	; 0x02
     810:	ab 83       	std	Y+3, r26	; 0x03
     812:	bc 83       	std	Y+4, r27	; 0x04
							Wert=(int)(Wert_tmp);
     814:	69 81       	ldd	r22, Y+1	; 0x01
     816:	7a 81       	ldd	r23, Y+2	; 0x02
     818:	8b 81       	ldd	r24, Y+3	; 0x03
     81a:	9c 81       	ldd	r25, Y+4	; 0x04
     81c:	0e 94 fb 0a 	call	0x15f6	; 0x15f6 <__fixsfsi>
     820:	dc 01       	movw	r26, r24
     822:	cb 01       	movw	r24, r22
     824:	9e 83       	std	Y+6, r25	; 0x06
     826:	8d 83       	std	Y+5, r24	; 0x05
							return(Wert);
     828:	8d 81       	ldd	r24, Y+5	; 0x05
     82a:	9e 81       	ldd	r25, Y+6	; 0x06
     82c:	42 c0       	rjmp	.+132    	; 0x8b2 <Get_uArm_Koordinate+0x178>
						}
						break;	
     82e:	27 c0       	rjmp	.+78     	; 0x87e <Get_uArm_Koordinate+0x144>
			case 'Z':	if (k==3) //Abschnitt mit Z
     830:	80 91 28 06 	lds	r24, 0x0628
     834:	83 30       	cpi	r24, 0x03	; 3
     836:	11 f5       	brne	.+68     	; 0x87c <Get_uArm_Koordinate+0x142>
						{
							Wert_tmp=atof(++ptr_Abschnitt);//;atof(ptr_Abschnitt);
     838:	80 91 43 06 	lds	r24, 0x0643
     83c:	90 91 44 06 	lds	r25, 0x0644
     840:	01 96       	adiw	r24, 0x01	; 1
     842:	90 93 44 06 	sts	0x0644, r25
     846:	80 93 43 06 	sts	0x0643, r24
     84a:	80 91 43 06 	lds	r24, 0x0643
     84e:	90 91 44 06 	lds	r25, 0x0644
     852:	0e 94 86 0b 	call	0x170c	; 0x170c <atof>
     856:	dc 01       	movw	r26, r24
     858:	cb 01       	movw	r24, r22
     85a:	89 83       	std	Y+1, r24	; 0x01
     85c:	9a 83       	std	Y+2, r25	; 0x02
     85e:	ab 83       	std	Y+3, r26	; 0x03
     860:	bc 83       	std	Y+4, r27	; 0x04
							Wert=(int)(Wert_tmp);
     862:	69 81       	ldd	r22, Y+1	; 0x01
     864:	7a 81       	ldd	r23, Y+2	; 0x02
     866:	8b 81       	ldd	r24, Y+3	; 0x03
     868:	9c 81       	ldd	r25, Y+4	; 0x04
     86a:	0e 94 fb 0a 	call	0x15f6	; 0x15f6 <__fixsfsi>
     86e:	dc 01       	movw	r26, r24
     870:	cb 01       	movw	r24, r22
     872:	9e 83       	std	Y+6, r25	; 0x06
     874:	8d 83       	std	Y+5, r24	; 0x05
							return(Wert);
     876:	8d 81       	ldd	r24, Y+5	; 0x05
     878:	9e 81       	ldd	r25, Y+6	; 0x06
     87a:	1b c0       	rjmp	.+54     	; 0x8b2 <Get_uArm_Koordinate+0x178>
						}
						break;
     87c:	00 00       	nop
			default:	break;																	
		}
		k++;
     87e:	80 91 28 06 	lds	r24, 0x0628
     882:	8f 5f       	subi	r24, 0xFF	; 255
     884:	80 93 28 06 	sts	0x0628, r24
		ptr_Abschnitt = strtok(NULL, trennzeichen);
     888:	62 e0       	ldi	r22, 0x02	; 2
     88a:	71 e0       	ldi	r23, 0x01	; 1
     88c:	80 e0       	ldi	r24, 0x00	; 0
     88e:	90 e0       	ldi	r25, 0x00	; 0
     890:	0e 94 8a 0b 	call	0x1714	; 0x1714 <strtok>
     894:	90 93 44 06 	sts	0x0644, r25
     898:	80 93 43 06 	sts	0x0643, r24
	to_uARM("P2220\n"); //Koordinaten abfragen	
	uart_str_complete = 1;	//String für Änderungen blockieren!
	//clear_lcd();
	ptr_Abschnitt = strtok(uart_string, trennzeichen);
	k=0;
	while(ptr_Abschnitt != NULL)
     89c:	80 91 43 06 	lds	r24, 0x0643
     8a0:	90 91 44 06 	lds	r25, 0x0644
     8a4:	00 97       	sbiw	r24, 0x00	; 0
     8a6:	09 f0       	breq	.+2      	; 0x8aa <Get_uArm_Koordinate+0x170>
     8a8:	67 cf       	rjmp	.-306    	; 0x778 <Get_uArm_Koordinate+0x3e>
		k++;
		ptr_Abschnitt = strtok(NULL, trennzeichen);
		//Jeder Aufruf gibt das Token zurück. Das Trennzeichen wird mit '\0' überschrieben.
		//Die Schleife läuft durch bis strtok() den NULL-Zeiger zurückliefert.
	}
	k=0;
     8aa:	10 92 28 06 	sts	0x0628, r1
	uart_str_complete = 0;
     8ae:	10 92 27 06 	sts	0x0627, r1
	//wait_1ms(Delay_LCD);	
}
     8b2:	27 96       	adiw	r28, 0x07	; 7
     8b4:	0f b6       	in	r0, 0x3f	; 63
     8b6:	f8 94       	cli
     8b8:	de bf       	out	0x3e, r29	; 62
     8ba:	0f be       	out	0x3f, r0	; 63
     8bc:	cd bf       	out	0x3d, r28	; 61
     8be:	df 91       	pop	r29
     8c0:	cf 91       	pop	r28
     8c2:	08 95       	ret

000008c4 <__vector_20>:

ISR (USART0_RX_vect) // UART0 Empfangsinterrupt
{
     8c4:	1f 92       	push	r1
     8c6:	0f 92       	push	r0
     8c8:	00 90 5f 00 	lds	r0, 0x005F
     8cc:	0f 92       	push	r0
     8ce:	11 24       	eor	r1, r1
     8d0:	2f 93       	push	r18
     8d2:	8f 93       	push	r24
     8d4:	9f 93       	push	r25
     8d6:	ef 93       	push	r30
     8d8:	ff 93       	push	r31
     8da:	cf 93       	push	r28
     8dc:	df 93       	push	r29
     8de:	1f 92       	push	r1
     8e0:	cd b7       	in	r28, 0x3d	; 61
     8e2:	de b7       	in	r29, 0x3e	; 62
  unsigned char nextChar;

  // Daten aus dem Puffer lesen
  nextChar = UDR0;
     8e4:	86 ec       	ldi	r24, 0xC6	; 198
     8e6:	90 e0       	ldi	r25, 0x00	; 0
     8e8:	fc 01       	movw	r30, r24
     8ea:	80 81       	ld	r24, Z
     8ec:	89 83       	std	Y+1, r24	; 0x01
  if( uart_str_complete == 0 )
     8ee:	80 91 27 06 	lds	r24, 0x0627
     8f2:	88 23       	and	r24, r24
     8f4:	31 f5       	brne	.+76     	; 0x942 <__vector_20+0x7e>
  {	// Daten werden erst in uart_string geschrieben, wenn nicht String-Ende/max Zeichenlänge erreicht ist/string gerade verarbeitet wird
    if( nextChar != '\n' && nextChar != '\r' && uart_str_count < UART_MAXSTRLEN )
     8f6:	89 81       	ldd	r24, Y+1	; 0x01
     8f8:	8a 30       	cpi	r24, 0x0A	; 10
     8fa:	b1 f0       	breq	.+44     	; 0x928 <__vector_20+0x64>
     8fc:	89 81       	ldd	r24, Y+1	; 0x01
     8fe:	8d 30       	cpi	r24, 0x0D	; 13
     900:	99 f0       	breq	.+38     	; 0x928 <__vector_20+0x64>
     902:	80 91 26 06 	lds	r24, 0x0626
     906:	82 33       	cpi	r24, 0x32	; 50
     908:	78 f4       	brcc	.+30     	; 0x928 <__vector_20+0x64>
	{
      uart_string[uart_str_count] = nextChar;
     90a:	80 91 26 06 	lds	r24, 0x0626
     90e:	88 2f       	mov	r24, r24
     910:	90 e0       	ldi	r25, 0x00	; 0
     912:	8d 50       	subi	r24, 0x0D	; 13
     914:	9a 4f       	sbci	r25, 0xFA	; 250
     916:	29 81       	ldd	r18, Y+1	; 0x01
     918:	fc 01       	movw	r30, r24
     91a:	20 83       	st	Z, r18
      uart_str_count++;
     91c:	80 91 26 06 	lds	r24, 0x0626
     920:	8f 5f       	subi	r24, 0xFF	; 255
     922:	80 93 26 06 	sts	0x0626, r24
     926:	0d c0       	rjmp	.+26     	; 0x942 <__vector_20+0x7e>
    }
    else 
	{
      uart_string[uart_str_count] = '\0';
     928:	80 91 26 06 	lds	r24, 0x0626
     92c:	88 2f       	mov	r24, r24
     92e:	90 e0       	ldi	r25, 0x00	; 0
     930:	8d 50       	subi	r24, 0x0D	; 13
     932:	9a 4f       	sbci	r25, 0xFA	; 250
     934:	fc 01       	movw	r30, r24
     936:	10 82       	st	Z, r1
      uart_str_count = 0;
     938:	10 92 26 06 	sts	0x0626, r1
      uart_str_complete = 1;
     93c:	81 e0       	ldi	r24, 0x01	; 1
     93e:	80 93 27 06 	sts	0x0627, r24
    }
  }
}
     942:	0f 90       	pop	r0
     944:	df 91       	pop	r29
     946:	cf 91       	pop	r28
     948:	ff 91       	pop	r31
     94a:	ef 91       	pop	r30
     94c:	9f 91       	pop	r25
     94e:	8f 91       	pop	r24
     950:	2f 91       	pop	r18
     952:	0f 90       	pop	r0
     954:	00 92 5f 00 	sts	0x005F, r0
     958:	0f 90       	pop	r0
     95a:	1f 90       	pop	r1
     95c:	18 95       	reti

0000095e <main>:
// ==============================================================================================================
// Hier beginnt das Hauptprogramm "main"
// --------------------------------------------------------------------------------------------------------------

int main (void)
{
     95e:	cf 93       	push	r28
     960:	df 93       	push	r29
     962:	cd b7       	in	r28, 0x3d	; 61
     964:	de b7       	in	r29, 0x3e	; 62
	init_BT_CAR_V2_0();			// Das Board wird hier initialisiert
     966:	0e 94 de 0a 	call	0x15bc	; 0x15bc <init_BT_CAR_V2_0>
	write_text(0,4, PSTR("READY TO GO!"));	
     96a:	8c e7       	ldi	r24, 0x7C	; 124
     96c:	90 e0       	ldi	r25, 0x00	; 0
     96e:	ac 01       	movw	r20, r24
     970:	64 e0       	ldi	r22, 0x04	; 4
     972:	80 e0       	ldi	r24, 0x00	; 0
     974:	0e 94 0c 0a 	call	0x1418	; 0x1418 <write_text>
	wait_1ms(1000);	
     978:	68 ee       	ldi	r22, 0xE8	; 232
     97a:	73 e0       	ldi	r23, 0x03	; 3
     97c:	80 e0       	ldi	r24, 0x00	; 0
     97e:	90 e0       	ldi	r25, 0x00	; 0
     980:	0e 94 64 09 	call	0x12c8	; 0x12c8 <wait_1ms>
	clear_lcd();				// LCD clear
     984:	0e 94 7a 0a 	call	0x14f4	; 0x14f4 <clear_lcd>
	init_ADC();
     988:	0e 94 10 01 	call	0x220	; 0x220 <init_ADC>
	init_UART0();
     98c:	0e 94 73 01 	call	0x2e6	; 0x2e6 <init_UART0>

	while(1)
	{
		DIP_Switch=get_DIP_Switch();
     990:	0e 94 81 00 	call	0x102	; 0x102 <get_DIP_Switch>
     994:	80 93 2a 06 	sts	0x062A, r24
		switch(DIP_Switch)
     998:	80 91 2a 06 	lds	r24, 0x062A
     99c:	88 2f       	mov	r24, r24
     99e:	90 e0       	ldi	r25, 0x00	; 0
     9a0:	80 31       	cpi	r24, 0x10	; 16
     9a2:	91 05       	cpc	r25, r1
     9a4:	09 f4       	brne	.+2      	; 0x9a8 <main+0x4a>
     9a6:	e4 c0       	rjmp	.+456    	; 0xb70 <main+0x212>
     9a8:	81 31       	cpi	r24, 0x11	; 17
     9aa:	91 05       	cpc	r25, r1
     9ac:	a4 f4       	brge	.+40     	; 0x9d6 <main+0x78>
     9ae:	82 30       	cpi	r24, 0x02	; 2
     9b0:	91 05       	cpc	r25, r1
     9b2:	09 f4       	brne	.+2      	; 0x9b6 <main+0x58>
     9b4:	72 c0       	rjmp	.+228    	; 0xa9a <main+0x13c>
     9b6:	83 30       	cpi	r24, 0x03	; 3
     9b8:	91 05       	cpc	r25, r1
     9ba:	24 f4       	brge	.+8      	; 0x9c4 <main+0x66>
     9bc:	81 30       	cpi	r24, 0x01	; 1
     9be:	91 05       	cpc	r25, r1
     9c0:	19 f1       	breq	.+70     	; 0xa08 <main+0xaa>
     9c2:	c6 c3       	rjmp	.+1932   	; 0x1150 <__stack+0x51>
     9c4:	84 30       	cpi	r24, 0x04	; 4
     9c6:	91 05       	cpc	r25, r1
     9c8:	09 f4       	brne	.+2      	; 0x9cc <main+0x6e>
     9ca:	90 c0       	rjmp	.+288    	; 0xaec <main+0x18e>
     9cc:	88 30       	cpi	r24, 0x08	; 8
     9ce:	91 05       	cpc	r25, r1
     9d0:	09 f4       	brne	.+2      	; 0x9d4 <main+0x76>
     9d2:	b3 c0       	rjmp	.+358    	; 0xb3a <main+0x1dc>
     9d4:	bd c3       	rjmp	.+1914   	; 0x1150 <__stack+0x51>
     9d6:	80 38       	cpi	r24, 0x80	; 128
     9d8:	91 05       	cpc	r25, r1
     9da:	09 f4       	brne	.+2      	; 0x9de <main+0x80>
     9dc:	a0 c2       	rjmp	.+1344   	; 0xf1e <main+0x5c0>
     9de:	81 38       	cpi	r24, 0x81	; 129
     9e0:	91 05       	cpc	r25, r1
     9e2:	4c f4       	brge	.+18     	; 0x9f6 <main+0x98>
     9e4:	80 32       	cpi	r24, 0x20	; 32
     9e6:	91 05       	cpc	r25, r1
     9e8:	09 f4       	brne	.+2      	; 0x9ec <main+0x8e>
     9ea:	8b c1       	rjmp	.+790    	; 0xd02 <main+0x3a4>
     9ec:	80 34       	cpi	r24, 0x40	; 64
     9ee:	91 05       	cpc	r25, r1
     9f0:	09 f4       	brne	.+2      	; 0x9f4 <main+0x96>
     9f2:	f8 c1       	rjmp	.+1008   	; 0xde4 <main+0x486>
     9f4:	ad c3       	rjmp	.+1882   	; 0x1150 <__stack+0x51>
     9f6:	81 38       	cpi	r24, 0x81	; 129
     9f8:	91 05       	cpc	r25, r1
     9fa:	09 f4       	brne	.+2      	; 0x9fe <main+0xa0>
     9fc:	ad c2       	rjmp	.+1370   	; 0xf58 <main+0x5fa>
     9fe:	82 38       	cpi	r24, 0x82	; 130
     a00:	91 05       	cpc	r25, r1
     a02:	09 f4       	brne	.+2      	; 0xa06 <main+0xa8>
     a04:	3e c3       	rjmp	.+1660   	; 0x1082 <main+0x724>
     a06:	a4 c3       	rjmp	.+1864   	; 0x1150 <__stack+0x51>
		{
			case 0x01:	//Sauger montieren: Einfaches Pick and Place mit Sauger
						send_to_uArm("G0 X250 Y0 Z100 F20000\n");
     a08:	87 e1       	ldi	r24, 0x17	; 23
     a0a:	91 e0       	ldi	r25, 0x01	; 1
     a0c:	0e 94 1b 02 	call	0x436	; 0x436 <send_to_uArm>
						send_to_uArm("G0 X250 Y0 Z35 F20000\n");
     a10:	8f e2       	ldi	r24, 0x2F	; 47
     a12:	91 e0       	ldi	r25, 0x01	; 1
     a14:	0e 94 1b 02 	call	0x436	; 0x436 <send_to_uArm>
						send_to_uArm("G0 X250 Y0 Z27 F1000\n");
     a18:	86 e4       	ldi	r24, 0x46	; 70
     a1a:	91 e0       	ldi	r25, 0x01	; 1
     a1c:	0e 94 1b 02 	call	0x436	; 0x436 <send_to_uArm>
						send_to_uArm("M2231 V0\n");	//Pumpe ausschalten
     a20:	8c e5       	ldi	r24, 0x5C	; 92
     a22:	91 e0       	ldi	r25, 0x01	; 1
     a24:	0e 94 1b 02 	call	0x436	; 0x436 <send_to_uArm>
						wait_1ms(1500);						
     a28:	6c ed       	ldi	r22, 0xDC	; 220
     a2a:	75 e0       	ldi	r23, 0x05	; 5
     a2c:	80 e0       	ldi	r24, 0x00	; 0
     a2e:	90 e0       	ldi	r25, 0x00	; 0
     a30:	0e 94 64 09 	call	0x12c8	; 0x12c8 <wait_1ms>
						send_to_uArm("M2231 V1\n");	//ansaugen, Pumpe einschalten
     a34:	86 e6       	ldi	r24, 0x66	; 102
     a36:	91 e0       	ldi	r25, 0x01	; 1
     a38:	0e 94 1b 02 	call	0x436	; 0x436 <send_to_uArm>
						wait_1ms(200);
     a3c:	68 ec       	ldi	r22, 0xC8	; 200
     a3e:	70 e0       	ldi	r23, 0x00	; 0
     a40:	80 e0       	ldi	r24, 0x00	; 0
     a42:	90 e0       	ldi	r25, 0x00	; 0
     a44:	0e 94 64 09 	call	0x12c8	; 0x12c8 <wait_1ms>
						send_to_uArm("G0 X250 Y0 Z100 F20000\n");
     a48:	87 e1       	ldi	r24, 0x17	; 23
     a4a:	91 e0       	ldi	r25, 0x01	; 1
     a4c:	0e 94 1b 02 	call	0x436	; 0x436 <send_to_uArm>
						send_to_uArm("G0 X250 Y-150 Z100 F20000\n");						
     a50:	80 e7       	ldi	r24, 0x70	; 112
     a52:	91 e0       	ldi	r25, 0x01	; 1
     a54:	0e 94 1b 02 	call	0x436	; 0x436 <send_to_uArm>
						send_to_uArm("G0 X250 Y-150 Z35 F20000\n");
     a58:	8b e8       	ldi	r24, 0x8B	; 139
     a5a:	91 e0       	ldi	r25, 0x01	; 1
     a5c:	0e 94 1b 02 	call	0x436	; 0x436 <send_to_uArm>
						send_to_uArm("G0 X250 Y-150 Z27 F1000\n");						
     a60:	85 ea       	ldi	r24, 0xA5	; 165
     a62:	91 e0       	ldi	r25, 0x01	; 1
     a64:	0e 94 1b 02 	call	0x436	; 0x436 <send_to_uArm>
						send_to_uArm("M2231 V0\n");	//Pumpe ausschalten
     a68:	8c e5       	ldi	r24, 0x5C	; 92
     a6a:	91 e0       	ldi	r25, 0x01	; 1
     a6c:	0e 94 1b 02 	call	0x436	; 0x436 <send_to_uArm>
						wait_1ms(1500);
     a70:	6c ed       	ldi	r22, 0xDC	; 220
     a72:	75 e0       	ldi	r23, 0x05	; 5
     a74:	80 e0       	ldi	r24, 0x00	; 0
     a76:	90 e0       	ldi	r25, 0x00	; 0
     a78:	0e 94 64 09 	call	0x12c8	; 0x12c8 <wait_1ms>
						send_to_uArm("M2231 V1\n");	//ansaugen, Pumpe einschalten
     a7c:	86 e6       	ldi	r24, 0x66	; 102
     a7e:	91 e0       	ldi	r25, 0x01	; 1
     a80:	0e 94 1b 02 	call	0x436	; 0x436 <send_to_uArm>
						wait_1ms(200);													
     a84:	68 ec       	ldi	r22, 0xC8	; 200
     a86:	70 e0       	ldi	r23, 0x00	; 0
     a88:	80 e0       	ldi	r24, 0x00	; 0
     a8a:	90 e0       	ldi	r25, 0x00	; 0
     a8c:	0e 94 64 09 	call	0x12c8	; 0x12c8 <wait_1ms>
						send_to_uArm("G0 X250 Y-150 Z100 F20000\n");						
     a90:	80 e7       	ldi	r24, 0x70	; 112
     a92:	91 e0       	ldi	r25, 0x01	; 1
     a94:	0e 94 1b 02 	call	0x436	; 0x436 <send_to_uArm>
						break;
     a98:	64 c3       	rjmp	.+1736   	; 0x1162 <__stack+0x63>

			case 0x02: 	//Fahren bis X Koordinate  > 200mm, Relativkoordinaten verwenden.
						send_to_uArm("G0 X150 Y0 Z100 F10000\n"); //Max. Speed 30000
     a9a:	8e eb       	ldi	r24, 0xBE	; 190
     a9c:	91 e0       	ldi	r25, 0x01	; 1
     a9e:	0e 94 1b 02 	call	0x436	; 0x436 <send_to_uArm>
						x_Koordinate=Get_uArm_Koordinate('X'); //Abholen von X Koordinate
     aa2:	88 e5       	ldi	r24, 0x58	; 88
     aa4:	0e 94 9d 03 	call	0x73a	; 0x73a <Get_uArm_Koordinate>
     aa8:	90 93 40 06 	sts	0x0640, r25
     aac:	80 93 3f 06 	sts	0x063F, r24
						y_Koordinate=Get_uArm_Koordinate('Y'); //Abholen von Y Koordinate
     ab0:	89 e5       	ldi	r24, 0x59	; 89
     ab2:	0e 94 9d 03 	call	0x73a	; 0x73a <Get_uArm_Koordinate>
     ab6:	90 93 48 06 	sts	0x0648, r25
     aba:	80 93 47 06 	sts	0x0647, r24
						z_Koordinate=Get_uArm_Koordinate('Z'); //Abholen von Z Koordinate
     abe:	8a e5       	ldi	r24, 0x5A	; 90
     ac0:	0e 94 9d 03 	call	0x73a	; 0x73a <Get_uArm_Koordinate>
     ac4:	90 93 3a 06 	sts	0x063A, r25
     ac8:	80 93 39 06 	sts	0x0639, r24
						while (Get_uArm_Koordinate('X') < 200) //Warten bis X >= 200
     acc:	04 c0       	rjmp	.+8      	; 0xad6 <main+0x178>
							send_to_uArm("G2204 X1 Y0 Z0 F1000\n"); //Relative Bewegung	
     ace:	86 ed       	ldi	r24, 0xD6	; 214
     ad0:	91 e0       	ldi	r25, 0x01	; 1
     ad2:	0e 94 1b 02 	call	0x436	; 0x436 <send_to_uArm>
			case 0x02: 	//Fahren bis X Koordinate  > 200mm, Relativkoordinaten verwenden.
						send_to_uArm("G0 X150 Y0 Z100 F10000\n"); //Max. Speed 30000
						x_Koordinate=Get_uArm_Koordinate('X'); //Abholen von X Koordinate
						y_Koordinate=Get_uArm_Koordinate('Y'); //Abholen von Y Koordinate
						z_Koordinate=Get_uArm_Koordinate('Z'); //Abholen von Z Koordinate
						while (Get_uArm_Koordinate('X') < 200) //Warten bis X >= 200
     ad6:	88 e5       	ldi	r24, 0x58	; 88
     ad8:	0e 94 9d 03 	call	0x73a	; 0x73a <Get_uArm_Koordinate>
     adc:	88 3c       	cpi	r24, 0xC8	; 200
     ade:	91 05       	cpc	r25, r1
     ae0:	b4 f3       	brlt	.-20     	; 0xace <main+0x170>
							send_to_uArm("G2204 X1 Y0 Z0 F1000\n"); //Relative Bewegung	
						send_to_uArm("G2203\n"); //Stop Befehl
     ae2:	8c ee       	ldi	r24, 0xEC	; 236
     ae4:	91 e0       	ldi	r25, 0x01	; 1
     ae6:	0e 94 1b 02 	call	0x436	; 0x436 <send_to_uArm>
						//wait_1ms(100);							
						break;
     aea:	3b c3       	rjmp	.+1654   	; 0x1162 <__stack+0x63>
			
			case 0x04:	//Schwenkbewegungen, ACHTUNG schaltet Pumpe automatisch aus!!!
						//send_to_uArm("G0 X250 Y0 Z100 F40000\n"); setzt Winkelauf Null			
						send_to_uArm("G2202 N0 V30\n");// Basemotor schwenkt Winkel 30° Basemotor Range 0..180°
     aec:	83 ef       	ldi	r24, 0xF3	; 243
     aee:	91 e0       	ldi	r25, 0x01	; 1
     af0:	0e 94 1b 02 	call	0x436	; 0x436 <send_to_uArm>
						send_to_uArm("G2202 N0 V70\n");// Basemotor schwenkt Winkel 70° Basemotor Range 0..180°						
     af4:	81 e0       	ldi	r24, 0x01	; 1
     af6:	92 e0       	ldi	r25, 0x02	; 2
     af8:	0e 94 1b 02 	call	0x436	; 0x436 <send_to_uArm>
						send_to_uArm("G2202 N1 V60\n");// Motor left schwenkt Winkel 60° Motor left Range 0..130°
     afc:	8f e0       	ldi	r24, 0x0F	; 15
     afe:	92 e0       	ldi	r25, 0x02	; 2
     b00:	0e 94 1b 02 	call	0x436	; 0x436 <send_to_uArm>
						send_to_uArm("G2202 N1 V95\n");// Motor left schwenkt Winkel 95° Motor left Range 0..130°	
     b04:	8d e1       	ldi	r24, 0x1D	; 29
     b06:	92 e0       	ldi	r25, 0x02	; 2
     b08:	0e 94 1b 02 	call	0x436	; 0x436 <send_to_uArm>
						send_to_uArm("G2202 N2 V22\n");// Motor right schwenkt Winkel 22° Motor right Range 0..106°
     b0c:	8b e2       	ldi	r24, 0x2B	; 43
     b0e:	92 e0       	ldi	r25, 0x02	; 2
     b10:	0e 94 1b 02 	call	0x436	; 0x436 <send_to_uArm>
						send_to_uArm("G2202 N2 V53\n");// Motor right schwenkt Winkel 53° Motor right Range 0..106°
     b14:	89 e3       	ldi	r24, 0x39	; 57
     b16:	92 e0       	ldi	r25, 0x02	; 2
     b18:	0e 94 1b 02 	call	0x436	; 0x436 <send_to_uArm>
						send_to_uArm("G2202 N3 V60\n");// End-effektor-motor schwenkt Winkel 60° Motor right Range 0..180°	
     b1c:	87 e4       	ldi	r24, 0x47	; 71
     b1e:	92 e0       	ldi	r25, 0x02	; 2
     b20:	0e 94 1b 02 	call	0x436	; 0x436 <send_to_uArm>
						wait_1ms(500); //End-effektor-motor hat keine Rückmeldung mit send_to_uARM("M2200\n") uARM is moving? 1 Yes / 0 N0
     b24:	64 ef       	ldi	r22, 0xF4	; 244
     b26:	71 e0       	ldi	r23, 0x01	; 1
     b28:	80 e0       	ldi	r24, 0x00	; 0
     b2a:	90 e0       	ldi	r25, 0x00	; 0
     b2c:	0e 94 64 09 	call	0x12c8	; 0x12c8 <wait_1ms>
									   //Benötigt deshalb wait_1ms()
						send_to_uArm("G2202 N3 V150\n");// End-effektor-motor schwenkt Winkel 150° Motor right Range 0..180°
     b30:	85 e5       	ldi	r24, 0x55	; 85
     b32:	92 e0       	ldi	r25, 0x02	; 2
     b34:	0e 94 1b 02 	call	0x436	; 0x436 <send_to_uArm>
						break;
     b38:	14 c3       	rjmp	.+1576   	; 0x1162 <__stack+0x63>
						
			
			case 0x08:	//Relativ Bewegungen
						send_to_uArm("G0 X150 Y100 Z100 F20000\n");
     b3a:	84 e6       	ldi	r24, 0x64	; 100
     b3c:	92 e0       	ldi	r25, 0x02	; 2
     b3e:	0e 94 1b 02 	call	0x436	; 0x436 <send_to_uArm>
						for(i=0;i<5;i++)
     b42:	10 92 2b 06 	sts	0x062B, r1
     b46:	0f c0       	rjmp	.+30     	; 0xb66 <main+0x208>
						{
							send_to_uArm("G2204 X0 Y-50 Z0 F5000\n"); //Relative Bewegung Y-50
     b48:	8e e7       	ldi	r24, 0x7E	; 126
     b4a:	92 e0       	ldi	r25, 0x02	; 2
     b4c:	0e 94 1b 02 	call	0x436	; 0x436 <send_to_uArm>
							wait_1ms(500); //zur besseren Veranschaulichung
     b50:	64 ef       	ldi	r22, 0xF4	; 244
     b52:	71 e0       	ldi	r23, 0x01	; 1
     b54:	80 e0       	ldi	r24, 0x00	; 0
     b56:	90 e0       	ldi	r25, 0x00	; 0
     b58:	0e 94 64 09 	call	0x12c8	; 0x12c8 <wait_1ms>
						break;
						
			
			case 0x08:	//Relativ Bewegungen
						send_to_uArm("G0 X150 Y100 Z100 F20000\n");
						for(i=0;i<5;i++)
     b5c:	80 91 2b 06 	lds	r24, 0x062B
     b60:	8f 5f       	subi	r24, 0xFF	; 255
     b62:	80 93 2b 06 	sts	0x062B, r24
     b66:	80 91 2b 06 	lds	r24, 0x062B
     b6a:	85 30       	cpi	r24, 0x05	; 5
     b6c:	68 f3       	brcs	.-38     	; 0xb48 <main+0x1ea>
						{
							send_to_uArm("G2204 X0 Y-50 Z0 F5000\n"); //Relative Bewegung Y-50
							wait_1ms(500); //zur besseren Veranschaulichung
						}
						break;
     b6e:	f9 c2       	rjmp	.+1522   	; 0x1162 <__stack+0x63>
								
			case 0x10:	//Joysticksteuerung mit Relativkoordinaten mehrere Geschwindigkeitsstufen
						//Grosser Ausschlag mit Joystick --> Höhere Geschwindigkeit
						//zittert leicht ADC Wert müsste gefiltert weden
						send_to_uArm("G0 X150 Y0 Z100 F20000\n");
     b70:	86 e9       	ldi	r24, 0x96	; 150
     b72:	92 e0       	ldi	r25, 0x02	; 2
     b74:	0e 94 1b 02 	call	0x436	; 0x436 <send_to_uArm>
						DIP_Switch=get_DIP_Switch();
     b78:	0e 94 81 00 	call	0x102	; 0x102 <get_DIP_Switch>
     b7c:	80 93 2a 06 	sts	0x062A, r24
						while(DIP_Switch==0x10)
     b80:	ba c0       	rjmp	.+372    	; 0xcf6 <main+0x398>
						{
							DIP_Switch=get_DIP_Switch();							
     b82:	0e 94 81 00 	call	0x102	; 0x102 <get_DIP_Switch>
     b86:	80 93 2a 06 	sts	0x062A, r24
							x_Wert_ADC=get_ADC_Channel(0); //Joystick X
     b8a:	80 e0       	ldi	r24, 0x00	; 0
     b8c:	0e 94 32 01 	call	0x264	; 0x264 <get_ADC_Channel>
     b90:	90 93 4a 06 	sts	0x064A, r25
     b94:	80 93 49 06 	sts	0x0649, r24
							y_Wert_ADC=get_ADC_Channel(1); //Joystick Y
     b98:	81 e0       	ldi	r24, 0x01	; 1
     b9a:	0e 94 32 01 	call	0x264	; 0x264 <get_ADC_Channel>
     b9e:	90 93 46 06 	sts	0x0646, r25
     ba2:	80 93 45 06 	sts	0x0645, r24
							//X-Achse
							if (x_Wert_ADC <400)
     ba6:	80 91 49 06 	lds	r24, 0x0649
     baa:	90 91 4a 06 	lds	r25, 0x064A
     bae:	80 39       	cpi	r24, 0x90	; 144
     bb0:	21 e0       	ldi	r18, 0x01	; 1
     bb2:	92 07       	cpc	r25, r18
     bb4:	e0 f4       	brcc	.+56     	; 0xbee <main+0x290>
							{
								if (x_Wert_ADC <100)
     bb6:	80 91 49 06 	lds	r24, 0x0649
     bba:	90 91 4a 06 	lds	r25, 0x064A
     bbe:	84 36       	cpi	r24, 0x64	; 100
     bc0:	91 05       	cpc	r25, r1
     bc2:	28 f4       	brcc	.+10     	; 0xbce <main+0x270>
									send_to_uArm("G2204 X-3 Y0 Z0 F10000\n"); //Relative Bewegung
     bc4:	8e ea       	ldi	r24, 0xAE	; 174
     bc6:	92 e0       	ldi	r25, 0x02	; 2
     bc8:	0e 94 1b 02 	call	0x436	; 0x436 <send_to_uArm>
     bcc:	10 c0       	rjmp	.+32     	; 0xbee <main+0x290>
								else if (x_Wert_ADC <250)
     bce:	80 91 49 06 	lds	r24, 0x0649
     bd2:	90 91 4a 06 	lds	r25, 0x064A
     bd6:	8a 3f       	cpi	r24, 0xFA	; 250
     bd8:	91 05       	cpc	r25, r1
     bda:	28 f4       	brcc	.+10     	; 0xbe6 <main+0x288>
										send_to_uArm("G2204 X-2 Y0 Z0 F1000\n"); //Relative Bewegung
     bdc:	86 ec       	ldi	r24, 0xC6	; 198
     bde:	92 e0       	ldi	r25, 0x02	; 2
     be0:	0e 94 1b 02 	call	0x436	; 0x436 <send_to_uArm>
     be4:	04 c0       	rjmp	.+8      	; 0xbee <main+0x290>
									 else	
										send_to_uArm("G2204 X-1 Y0 Z0 F50\n"); //Relative Bewegung									
     be6:	8d ed       	ldi	r24, 0xDD	; 221
     be8:	92 e0       	ldi	r25, 0x02	; 2
     bea:	0e 94 1b 02 	call	0x436	; 0x436 <send_to_uArm>
							}
							if (x_Wert_ADC > 600)
     bee:	80 91 49 06 	lds	r24, 0x0649
     bf2:	90 91 4a 06 	lds	r25, 0x064A
     bf6:	89 35       	cpi	r24, 0x59	; 89
     bf8:	42 e0       	ldi	r20, 0x02	; 2
     bfa:	94 07       	cpc	r25, r20
     bfc:	f0 f0       	brcs	.+60     	; 0xc3a <main+0x2dc>
							{
								if (x_Wert_ADC >900)
     bfe:	80 91 49 06 	lds	r24, 0x0649
     c02:	90 91 4a 06 	lds	r25, 0x064A
     c06:	85 38       	cpi	r24, 0x85	; 133
     c08:	53 e0       	ldi	r21, 0x03	; 3
     c0a:	95 07       	cpc	r25, r21
     c0c:	28 f0       	brcs	.+10     	; 0xc18 <main+0x2ba>
									send_to_uArm("G2204 X3 Y0 Z0 F10000\n"); //Relative Bewegung
     c0e:	82 ef       	ldi	r24, 0xF2	; 242
     c10:	92 e0       	ldi	r25, 0x02	; 2
     c12:	0e 94 1b 02 	call	0x436	; 0x436 <send_to_uArm>
     c16:	11 c0       	rjmp	.+34     	; 0xc3a <main+0x2dc>
								else if (x_Wert_ADC >750)
     c18:	80 91 49 06 	lds	r24, 0x0649
     c1c:	90 91 4a 06 	lds	r25, 0x064A
     c20:	8f 3e       	cpi	r24, 0xEF	; 239
     c22:	22 e0       	ldi	r18, 0x02	; 2
     c24:	92 07       	cpc	r25, r18
     c26:	28 f0       	brcs	.+10     	; 0xc32 <main+0x2d4>
										send_to_uArm("G2204 X2 Y0 Z0 F1000\n"); //Relative Bewegung
     c28:	89 e0       	ldi	r24, 0x09	; 9
     c2a:	93 e0       	ldi	r25, 0x03	; 3
     c2c:	0e 94 1b 02 	call	0x436	; 0x436 <send_to_uArm>
     c30:	04 c0       	rjmp	.+8      	; 0xc3a <main+0x2dc>
									 else	
										send_to_uArm("G2204 X1 Y0 Z0 F50\n"); //Relative Bewegung										
     c32:	8f e1       	ldi	r24, 0x1F	; 31
     c34:	93 e0       	ldi	r25, 0x03	; 3
     c36:	0e 94 1b 02 	call	0x436	; 0x436 <send_to_uArm>
							}							
							
							//Y-Achse
							if (y_Wert_ADC <400)
     c3a:	80 91 45 06 	lds	r24, 0x0645
     c3e:	90 91 46 06 	lds	r25, 0x0646
     c42:	80 39       	cpi	r24, 0x90	; 144
     c44:	41 e0       	ldi	r20, 0x01	; 1
     c46:	94 07       	cpc	r25, r20
     c48:	e0 f4       	brcc	.+56     	; 0xc82 <main+0x324>
							{
								if (y_Wert_ADC <100)
     c4a:	80 91 45 06 	lds	r24, 0x0645
     c4e:	90 91 46 06 	lds	r25, 0x0646
     c52:	84 36       	cpi	r24, 0x64	; 100
     c54:	91 05       	cpc	r25, r1
     c56:	28 f4       	brcc	.+10     	; 0xc62 <main+0x304>
									send_to_uArm("G2204 X0 Y3 Z0 F10000\n"); //Relative Bewegung
     c58:	83 e3       	ldi	r24, 0x33	; 51
     c5a:	93 e0       	ldi	r25, 0x03	; 3
     c5c:	0e 94 1b 02 	call	0x436	; 0x436 <send_to_uArm>
     c60:	10 c0       	rjmp	.+32     	; 0xc82 <main+0x324>
								else if (y_Wert_ADC <250)
     c62:	80 91 45 06 	lds	r24, 0x0645
     c66:	90 91 46 06 	lds	r25, 0x0646
     c6a:	8a 3f       	cpi	r24, 0xFA	; 250
     c6c:	91 05       	cpc	r25, r1
     c6e:	28 f4       	brcc	.+10     	; 0xc7a <main+0x31c>
										send_to_uArm("G2204 X0 Y2 Z0 F1000\n"); //Relative Bewegung
     c70:	8a e4       	ldi	r24, 0x4A	; 74
     c72:	93 e0       	ldi	r25, 0x03	; 3
     c74:	0e 94 1b 02 	call	0x436	; 0x436 <send_to_uArm>
     c78:	04 c0       	rjmp	.+8      	; 0xc82 <main+0x324>
									 else	
										send_to_uArm("G2204 X0 Y1 Z0 F50\n"); //Relative Bewegung									
     c7a:	80 e6       	ldi	r24, 0x60	; 96
     c7c:	93 e0       	ldi	r25, 0x03	; 3
     c7e:	0e 94 1b 02 	call	0x436	; 0x436 <send_to_uArm>
							}
							if (y_Wert_ADC > 600)
     c82:	80 91 45 06 	lds	r24, 0x0645
     c86:	90 91 46 06 	lds	r25, 0x0646
     c8a:	89 35       	cpi	r24, 0x59	; 89
     c8c:	52 e0       	ldi	r21, 0x02	; 2
     c8e:	95 07       	cpc	r25, r21
     c90:	f0 f0       	brcs	.+60     	; 0xcce <main+0x370>
							{
								if (y_Wert_ADC >900)
     c92:	80 91 45 06 	lds	r24, 0x0645
     c96:	90 91 46 06 	lds	r25, 0x0646
     c9a:	85 38       	cpi	r24, 0x85	; 133
     c9c:	23 e0       	ldi	r18, 0x03	; 3
     c9e:	92 07       	cpc	r25, r18
     ca0:	28 f0       	brcs	.+10     	; 0xcac <main+0x34e>
									send_to_uArm("G2204 X0 Y-3 Z0 F10000\n"); //Relative Bewegung
     ca2:	84 e7       	ldi	r24, 0x74	; 116
     ca4:	93 e0       	ldi	r25, 0x03	; 3
     ca6:	0e 94 1b 02 	call	0x436	; 0x436 <send_to_uArm>
     caa:	11 c0       	rjmp	.+34     	; 0xcce <main+0x370>
								else if (y_Wert_ADC >750)
     cac:	80 91 45 06 	lds	r24, 0x0645
     cb0:	90 91 46 06 	lds	r25, 0x0646
     cb4:	8f 3e       	cpi	r24, 0xEF	; 239
     cb6:	42 e0       	ldi	r20, 0x02	; 2
     cb8:	94 07       	cpc	r25, r20
     cba:	28 f0       	brcs	.+10     	; 0xcc6 <main+0x368>
										send_to_uArm("G2204 X0 Y-2 Z0 F1000\n"); //Relative Bewegung
     cbc:	8c e8       	ldi	r24, 0x8C	; 140
     cbe:	93 e0       	ldi	r25, 0x03	; 3
     cc0:	0e 94 1b 02 	call	0x436	; 0x436 <send_to_uArm>
     cc4:	04 c0       	rjmp	.+8      	; 0xcce <main+0x370>
									 else	
										send_to_uArm("G2204 X0 Y-1 Z0 F50\n"); //Relative Bewegung										
     cc6:	83 ea       	ldi	r24, 0xA3	; 163
     cc8:	93 e0       	ldi	r25, 0x03	; 3
     cca:	0e 94 1b 02 	call	0x436	; 0x436 <send_to_uArm>
							}	
						LCD_Taster=get_LCD_Taster();
     cce:	0e 94 e3 00 	call	0x1c6	; 0x1c6 <get_LCD_Taster>
     cd2:	80 93 29 06 	sts	0x0629, r24
						if(LCD_Taster==0x01)
     cd6:	80 91 29 06 	lds	r24, 0x0629
     cda:	81 30       	cpi	r24, 0x01	; 1
     cdc:	21 f4       	brne	.+8      	; 0xce6 <main+0x388>
							send_to_uArm("G2204 X0 Y0 Z1 F500\n"); //Relative Bewegung
     cde:	88 eb       	ldi	r24, 0xB8	; 184
     ce0:	93 e0       	ldi	r25, 0x03	; 3
     ce2:	0e 94 1b 02 	call	0x436	; 0x436 <send_to_uArm>
						if(LCD_Taster==0x02)
     ce6:	80 91 29 06 	lds	r24, 0x0629
     cea:	82 30       	cpi	r24, 0x02	; 2
     cec:	21 f4       	brne	.+8      	; 0xcf6 <main+0x398>
							send_to_uArm("G2204 X0 Y0 Z-1 F500\n"); //Relative Bewegung							
     cee:	8d ec       	ldi	r24, 0xCD	; 205
     cf0:	93 e0       	ldi	r25, 0x03	; 3
     cf2:	0e 94 1b 02 	call	0x436	; 0x436 <send_to_uArm>
			case 0x10:	//Joysticksteuerung mit Relativkoordinaten mehrere Geschwindigkeitsstufen
						//Grosser Ausschlag mit Joystick --> Höhere Geschwindigkeit
						//zittert leicht ADC Wert müsste gefiltert weden
						send_to_uArm("G0 X150 Y0 Z100 F20000\n");
						DIP_Switch=get_DIP_Switch();
						while(DIP_Switch==0x10)
     cf6:	80 91 2a 06 	lds	r24, 0x062A
     cfa:	80 31       	cpi	r24, 0x10	; 16
     cfc:	09 f4       	brne	.+2      	; 0xd00 <main+0x3a2>
     cfe:	41 cf       	rjmp	.-382    	; 0xb82 <main+0x224>
						if(LCD_Taster==0x01)
							send_to_uArm("G2204 X0 Y0 Z1 F500\n"); //Relative Bewegung
						if(LCD_Taster==0x02)
							send_to_uArm("G2204 X0 Y0 Z-1 F500\n"); //Relative Bewegung							
						}
						break;
     d00:	30 c2       	rjmp	.+1120   	; 0x1162 <__stack+0x63>
						
			case 0x20:	//Gripper montieren! Gripper Pick and Place
						send_to_uArm("G0 X150 Y100 Z100 F10000\n");
     d02:	83 ee       	ldi	r24, 0xE3	; 227
     d04:	93 e0       	ldi	r25, 0x03	; 3
     d06:	0e 94 1b 02 	call	0x436	; 0x436 <send_to_uArm>
						send_to_uArm("G0 X150 Y100 Z20 F10000\n");						
     d0a:	8d ef       	ldi	r24, 0xFD	; 253
     d0c:	93 e0       	ldi	r25, 0x03	; 3
     d0e:	0e 94 1b 02 	call	0x436	; 0x436 <send_to_uArm>
						send_to_uArm("G0 X150 Y100 Z-15 F2000\n");
     d12:	86 e1       	ldi	r24, 0x16	; 22
     d14:	94 e0       	ldi	r25, 0x04	; 4
     d16:	0e 94 1b 02 	call	0x436	; 0x436 <send_to_uArm>
						
						send_to_uArm("M2232 V0\n");	//Gripper open: 1 close / 0 open
     d1a:	8f e2       	ldi	r24, 0x2F	; 47
     d1c:	94 e0       	ldi	r25, 0x04	; 4
     d1e:	0e 94 1b 02 	call	0x436	; 0x436 <send_to_uArm>
						wait_1ms(2000); //Gripper open: Benötigt wait_1ms(2000) oder Abfrage über P2232
     d22:	60 ed       	ldi	r22, 0xD0	; 208
     d24:	77 e0       	ldi	r23, 0x07	; 7
     d26:	80 e0       	ldi	r24, 0x00	; 0
     d28:	90 e0       	ldi	r25, 0x00	; 0
     d2a:	0e 94 64 09 	call	0x12c8	; 0x12c8 <wait_1ms>
						send_to_uArm("P2232\n"); // get status of Gripper 0 stop, 1 working, 2 grabbing things												
     d2e:	89 e3       	ldi	r24, 0x39	; 57
     d30:	94 e0       	ldi	r25, 0x04	; 4
     d32:	0e 94 1b 02 	call	0x436	; 0x436 <send_to_uArm>
						send_to_uArm("M2232 V1\n");	//Gripper close: 1 close / 0 open
     d36:	80 e4       	ldi	r24, 0x40	; 64
     d38:	94 e0       	ldi	r25, 0x04	; 4
     d3a:	0e 94 1b 02 	call	0x436	; 0x436 <send_to_uArm>
						wait_1ms(2000); //Gripper open: Benötigt wait_1ms(2000)  oder Abfrage über P2232						
     d3e:	60 ed       	ldi	r22, 0xD0	; 208
     d40:	77 e0       	ldi	r23, 0x07	; 7
     d42:	80 e0       	ldi	r24, 0x00	; 0
     d44:	90 e0       	ldi	r25, 0x00	; 0
     d46:	0e 94 64 09 	call	0x12c8	; 0x12c8 <wait_1ms>
						send_to_uArm("P2232\n"); // get status of Gripper 0 stop, 1 working, 2 grabbing things	
     d4a:	89 e3       	ldi	r24, 0x39	; 57
     d4c:	94 e0       	ldi	r25, 0x04	; 4
     d4e:	0e 94 1b 02 	call	0x436	; 0x436 <send_to_uArm>
						send_to_uArm("G0 X150 Y100 Z100 F10000\n");
     d52:	83 ee       	ldi	r24, 0xE3	; 227
     d54:	93 e0       	ldi	r25, 0x03	; 3
     d56:	0e 94 1b 02 	call	0x436	; 0x436 <send_to_uArm>
						
						//End effektor motor Start
						send_to_uArm("G2202 N3 V90\n");// End-effektor-motor schwenkt Winkel 60° Motor right Range 0..180°	
     d5a:	8a e4       	ldi	r24, 0x4A	; 74
     d5c:	94 e0       	ldi	r25, 0x04	; 4
     d5e:	0e 94 1b 02 	call	0x436	; 0x436 <send_to_uArm>
						wait_1ms(2000); //End-effektor-motor hat keine Rückmeldung mit send_to_uARM("M2200\n") uARM is moving? 1 Yes / 0 N0
     d62:	60 ed       	ldi	r22, 0xD0	; 208
     d64:	77 e0       	ldi	r23, 0x07	; 7
     d66:	80 e0       	ldi	r24, 0x00	; 0
     d68:	90 e0       	ldi	r25, 0x00	; 0
     d6a:	0e 94 64 09 	call	0x12c8	; 0x12c8 <wait_1ms>
									   //Benötigt deshalb wait_1ms()
						send_to_uArm("G2202 N3 V180\n");// End-effektor-motor schwenkt Winkel 150° Motor right Range 0..180°
     d6e:	88 e5       	ldi	r24, 0x58	; 88
     d70:	94 e0       	ldi	r25, 0x04	; 4
     d72:	0e 94 1b 02 	call	0x436	; 0x436 <send_to_uArm>
						wait_1ms(1000); //End-effektor-motor hat keine Rückmeldung mit send_to_uARM("M2200\n") uARM is moving? 1 Yes / 0 N0
     d76:	68 ee       	ldi	r22, 0xE8	; 232
     d78:	73 e0       	ldi	r23, 0x03	; 3
     d7a:	80 e0       	ldi	r24, 0x00	; 0
     d7c:	90 e0       	ldi	r25, 0x00	; 0
     d7e:	0e 94 64 09 	call	0x12c8	; 0x12c8 <wait_1ms>
									   //Benötigt deshalb wait_1ms()						
						send_to_uArm("G2202 N3 V90\n");// End-effektor-motor schwenkt Winkel 60° Motor right Range 0..180°							
     d82:	8a e4       	ldi	r24, 0x4A	; 74
     d84:	94 e0       	ldi	r25, 0x04	; 4
     d86:	0e 94 1b 02 	call	0x436	; 0x436 <send_to_uArm>
						//End effektor motor End
												
						send_to_uArm("G0 X150 Y-100 Z100 F10000\n");												
     d8a:	87 e6       	ldi	r24, 0x67	; 103
     d8c:	94 e0       	ldi	r25, 0x04	; 4
     d8e:	0e 94 1b 02 	call	0x436	; 0x436 <send_to_uArm>
						send_to_uArm("G0 X150 Y-100 Z20 F10000\n");						
     d92:	82 e8       	ldi	r24, 0x82	; 130
     d94:	94 e0       	ldi	r25, 0x04	; 4
     d96:	0e 94 1b 02 	call	0x436	; 0x436 <send_to_uArm>
						send_to_uArm("G0 X150 Y-100 Z-15 F2000\n");
     d9a:	8c e9       	ldi	r24, 0x9C	; 156
     d9c:	94 e0       	ldi	r25, 0x04	; 4
     d9e:	0e 94 1b 02 	call	0x436	; 0x436 <send_to_uArm>
						send_to_uArm("M2232 V0\n");	//Gripper open: 1 close / 0 open
     da2:	8f e2       	ldi	r24, 0x2F	; 47
     da4:	94 e0       	ldi	r25, 0x04	; 4
     da6:	0e 94 1b 02 	call	0x436	; 0x436 <send_to_uArm>
						wait_1ms(2000); //Gripper open: Benötigt wait_1ms(2000)  oder Abfrage über P2232						
     daa:	60 ed       	ldi	r22, 0xD0	; 208
     dac:	77 e0       	ldi	r23, 0x07	; 7
     dae:	80 e0       	ldi	r24, 0x00	; 0
     db0:	90 e0       	ldi	r25, 0x00	; 0
     db2:	0e 94 64 09 	call	0x12c8	; 0x12c8 <wait_1ms>
						send_to_uArm("P2232\n"); // get status of Gripper 0 stop, 1 working, 2 grabbing things	
     db6:	89 e3       	ldi	r24, 0x39	; 57
     db8:	94 e0       	ldi	r25, 0x04	; 4
     dba:	0e 94 1b 02 	call	0x436	; 0x436 <send_to_uArm>
						send_to_uArm("M2232 V1\n");	//Gripper close: 1 close / 0 open
     dbe:	80 e4       	ldi	r24, 0x40	; 64
     dc0:	94 e0       	ldi	r25, 0x04	; 4
     dc2:	0e 94 1b 02 	call	0x436	; 0x436 <send_to_uArm>
						wait_1ms(2000); //Gripper open: Benötigt wait_1ms(2000)  oder Abfrage über P2232						
     dc6:	60 ed       	ldi	r22, 0xD0	; 208
     dc8:	77 e0       	ldi	r23, 0x07	; 7
     dca:	80 e0       	ldi	r24, 0x00	; 0
     dcc:	90 e0       	ldi	r25, 0x00	; 0
     dce:	0e 94 64 09 	call	0x12c8	; 0x12c8 <wait_1ms>
						send_to_uArm("P2232\n"); // get status of Gripper 0 stop, 1 working, 2 grabbing things						
     dd2:	89 e3       	ldi	r24, 0x39	; 57
     dd4:	94 e0       	ldi	r25, 0x04	; 4
     dd6:	0e 94 1b 02 	call	0x436	; 0x436 <send_to_uArm>
						send_to_uArm("G0 X150 Y-100 Z100 F10000\n");						
     dda:	87 e6       	ldi	r24, 0x67	; 103
     ddc:	94 e0       	ldi	r25, 0x04	; 4
     dde:	0e 94 1b 02 	call	0x436	; 0x436 <send_to_uArm>
						break;
     de2:	bf c1       	rjmp	.+894    	; 0x1162 <__stack+0x63>
													
			case 0x40:	//Joysticksteuerung mit Variablen und absolut Koordinaten
						send_to_uArm("G0 X200 Y0 Z100 F20000\n");
     de4:	86 eb       	ldi	r24, 0xB6	; 182
     de6:	94 e0       	ldi	r25, 0x04	; 4
     de8:	0e 94 1b 02 	call	0x436	; 0x436 <send_to_uArm>
						DIP_Switch=get_DIP_Switch();
     dec:	0e 94 81 00 	call	0x102	; 0x102 <get_DIP_Switch>
     df0:	80 93 2a 06 	sts	0x062A, r24
						while(DIP_Switch==0x40)
     df4:	8e c0       	rjmp	.+284    	; 0xf12 <main+0x5b4>
						{						
							DIP_Switch=get_DIP_Switch();
     df6:	0e 94 81 00 	call	0x102	; 0x102 <get_DIP_Switch>
     dfa:	80 93 2a 06 	sts	0x062A, r24
							alt_x_tmp=x_tmp; //Neu = alt
     dfe:	80 91 3b 06 	lds	r24, 0x063B
     e02:	90 91 3c 06 	lds	r25, 0x063C
     e06:	90 93 3e 06 	sts	0x063E, r25
     e0a:	80 93 3d 06 	sts	0x063D, r24
							alt_y_tmp=y_tmp;
     e0e:	80 91 4b 06 	lds	r24, 0x064B
     e12:	90 91 4c 06 	lds	r25, 0x064C
     e16:	90 93 42 06 	sts	0x0642, r25
     e1a:	80 93 41 06 	sts	0x0641, r24
							x_tmp=150+get_ADC_Channel(0)/8; //Joystick X ca. 150...270
     e1e:	80 e0       	ldi	r24, 0x00	; 0
     e20:	0e 94 32 01 	call	0x264	; 0x264 <get_ADC_Channel>
     e24:	96 95       	lsr	r25
     e26:	87 95       	ror	r24
     e28:	96 95       	lsr	r25
     e2a:	87 95       	ror	r24
     e2c:	96 95       	lsr	r25
     e2e:	87 95       	ror	r24
     e30:	8a 56       	subi	r24, 0x6A	; 106
     e32:	9f 4f       	sbci	r25, 0xFF	; 255
     e34:	90 93 3c 06 	sts	0x063C, r25
     e38:	80 93 3b 06 	sts	0x063B, r24
							y_tmp=170-get_ADC_Channel(1)/3; //Joystick Y ca. -170...170
     e3c:	81 e0       	ldi	r24, 0x01	; 1
     e3e:	0e 94 32 01 	call	0x264	; 0x264 <get_ADC_Channel>
     e42:	9c 01       	movw	r18, r24
     e44:	ab ea       	ldi	r26, 0xAB	; 171
     e46:	ba ea       	ldi	r27, 0xAA	; 170
     e48:	0e 94 77 0b 	call	0x16ee	; 0x16ee <__umulhisi3>
     e4c:	96 95       	lsr	r25
     e4e:	87 95       	ror	r24
     e50:	2a ea       	ldi	r18, 0xAA	; 170
     e52:	30 e0       	ldi	r19, 0x00	; 0
     e54:	a9 01       	movw	r20, r18
     e56:	48 1b       	sub	r20, r24
     e58:	59 0b       	sbc	r21, r25
     e5a:	ca 01       	movw	r24, r20
     e5c:	90 93 4c 06 	sts	0x064C, r25
     e60:	80 93 4b 06 	sts	0x064B, r24
							
							//kleiner Filter Mindeständerung 2 ADC Einheiten, sonst "zittert" der Robi
							if ( abs(x_tmp-alt_x_tmp)>2) //abs --> Betrag
     e64:	20 91 3b 06 	lds	r18, 0x063B
     e68:	30 91 3c 06 	lds	r19, 0x063C
     e6c:	80 91 3d 06 	lds	r24, 0x063D
     e70:	90 91 3e 06 	lds	r25, 0x063E
     e74:	a9 01       	movw	r20, r18
     e76:	48 1b       	sub	r20, r24
     e78:	59 0b       	sbc	r21, r25
     e7a:	ca 01       	movw	r24, r20
     e7c:	99 23       	and	r25, r25
     e7e:	1c f4       	brge	.+6      	; 0xe86 <main+0x528>
     e80:	91 95       	neg	r25
     e82:	81 95       	neg	r24
     e84:	91 09       	sbc	r25, r1
     e86:	83 30       	cpi	r24, 0x03	; 3
     e88:	91 05       	cpc	r25, r1
     e8a:	44 f0       	brlt	.+16     	; 0xe9c <main+0x53e>
								x_Koordinate=x_tmp;
     e8c:	80 91 3b 06 	lds	r24, 0x063B
     e90:	90 91 3c 06 	lds	r25, 0x063C
     e94:	90 93 40 06 	sts	0x0640, r25
     e98:	80 93 3f 06 	sts	0x063F, r24
							if ( abs(y_tmp-alt_y_tmp)>2)
     e9c:	20 91 4b 06 	lds	r18, 0x064B
     ea0:	30 91 4c 06 	lds	r19, 0x064C
     ea4:	80 91 41 06 	lds	r24, 0x0641
     ea8:	90 91 42 06 	lds	r25, 0x0642
     eac:	a9 01       	movw	r20, r18
     eae:	48 1b       	sub	r20, r24
     eb0:	59 0b       	sbc	r21, r25
     eb2:	ca 01       	movw	r24, r20
     eb4:	99 23       	and	r25, r25
     eb6:	1c f4       	brge	.+6      	; 0xebe <main+0x560>
     eb8:	91 95       	neg	r25
     eba:	81 95       	neg	r24
     ebc:	91 09       	sbc	r25, r1
     ebe:	83 30       	cpi	r24, 0x03	; 3
     ec0:	91 05       	cpc	r25, r1
     ec2:	44 f0       	brlt	.+16     	; 0xed4 <main+0x576>
								y_Koordinate=y_tmp;								
     ec4:	80 91 4b 06 	lds	r24, 0x064B
     ec8:	90 91 4c 06 	lds	r25, 0x064C
     ecc:	90 93 48 06 	sts	0x0648, r25
     ed0:	80 93 47 06 	sts	0x0647, r24

							z_Koordinate=100;
     ed4:	84 e6       	ldi	r24, 0x64	; 100
     ed6:	90 e0       	ldi	r25, 0x00	; 0
     ed8:	90 93 3a 06 	sts	0x063A, r25
     edc:	80 93 39 06 	sts	0x0639, r24
							speed=10000;								
     ee0:	80 e1       	ldi	r24, 0x10	; 16
     ee2:	97 e2       	ldi	r25, 0x27	; 39
     ee4:	90 93 01 01 	sts	0x0101, r25
     ee8:	80 93 00 01 	sts	0x0100, r24
							uArm_goto_xyz(x_Koordinate,y_Koordinate,z_Koordinate,speed); //G0 Weg-Befehl, es können direkt Variablen übergeben werden
     eec:	80 91 00 01 	lds	r24, 0x0100
     ef0:	90 91 01 01 	lds	r25, 0x0101
     ef4:	9c 01       	movw	r18, r24
     ef6:	40 91 39 06 	lds	r20, 0x0639
     efa:	50 91 3a 06 	lds	r21, 0x063A
     efe:	60 91 47 06 	lds	r22, 0x0647
     f02:	70 91 48 06 	lds	r23, 0x0648
     f06:	80 91 3f 06 	lds	r24, 0x063F
     f0a:	90 91 40 06 	lds	r25, 0x0640
     f0e:	0e 94 40 02 	call	0x480	; 0x480 <uArm_goto_xyz>
						break;
													
			case 0x40:	//Joysticksteuerung mit Variablen und absolut Koordinaten
						send_to_uArm("G0 X200 Y0 Z100 F20000\n");
						DIP_Switch=get_DIP_Switch();
						while(DIP_Switch==0x40)
     f12:	80 91 2a 06 	lds	r24, 0x062A
     f16:	80 34       	cpi	r24, 0x40	; 64
     f18:	09 f4       	brne	.+2      	; 0xf1c <main+0x5be>
     f1a:	6d cf       	rjmp	.-294    	; 0xdf6 <main+0x498>

							z_Koordinate=100;
							speed=10000;								
							uArm_goto_xyz(x_Koordinate,y_Koordinate,z_Koordinate,speed); //G0 Weg-Befehl, es können direkt Variablen übergeben werden
						}
						break;
     f1c:	22 c1       	rjmp	.+580    	; 0x1162 <__stack+0x63>
						
			case 0x80:	//Verschiedene Beschleunigungen einstellen
						send_to_uArm("M204 P50 T50 R50\n"); //Beschleunigung setzen P,T,R Werte 0..300 (Standardwerte P,T,R=200 )
     f1e:	8e ec       	ldi	r24, 0xCE	; 206
     f20:	94 e0       	ldi	r25, 0x04	; 4
     f22:	0e 94 1b 02 	call	0x436	; 0x436 <send_to_uArm>
														    //P = Printing moves
															//R = Retract only (no X, Y, Z) moves
															//T = Travel (non printing) moves

						send_to_uArm("G0 X200 Y100 Z100 F20000\n");
     f26:	80 ee       	ldi	r24, 0xE0	; 224
     f28:	94 e0       	ldi	r25, 0x04	; 4
     f2a:	0e 94 1b 02 	call	0x436	; 0x436 <send_to_uArm>
						wait_1ms(2000); //Für LCD Anzeige
     f2e:	60 ed       	ldi	r22, 0xD0	; 208
     f30:	77 e0       	ldi	r23, 0x07	; 7
     f32:	80 e0       	ldi	r24, 0x00	; 0
     f34:	90 e0       	ldi	r25, 0x00	; 0
     f36:	0e 94 64 09 	call	0x12c8	; 0x12c8 <wait_1ms>
						send_to_uArm("M204 P300 T300 R300\n");						
     f3a:	8a ef       	ldi	r24, 0xFA	; 250
     f3c:	94 e0       	ldi	r25, 0x04	; 4
     f3e:	0e 94 1b 02 	call	0x436	; 0x436 <send_to_uArm>
						send_to_uArm("G0 X200 Y-100 Z100 F20000\n");
     f42:	8f e0       	ldi	r24, 0x0F	; 15
     f44:	95 e0       	ldi	r25, 0x05	; 5
     f46:	0e 94 1b 02 	call	0x436	; 0x436 <send_to_uArm>
						wait_1ms(2000); //Für LCD Anzeige						
     f4a:	60 ed       	ldi	r22, 0xD0	; 208
     f4c:	77 e0       	ldi	r23, 0x07	; 7
     f4e:	80 e0       	ldi	r24, 0x00	; 0
     f50:	90 e0       	ldi	r25, 0x00	; 0
     f52:	0e 94 64 09 	call	0x12c8	; 0x12c8 <wait_1ms>
						break;	
     f56:	05 c1       	rjmp	.+522    	; 0x1162 <__stack+0x63>
											
			case 0x81:	//Einfaches Pick and Place mit Gripper, für schnelle Bewegungen werden Schwenkbewegungen mit den Motoren ausgeführt
						//Die Beschleunigung wird erhöht auf T=300
						send_to_uArm("M204 P300 T300 R300\n");	//Beschleunigung setzen P,T,R Werte 0..300 (Standardwerte P,T,R=200 )
     f58:	8a ef       	ldi	r24, 0xFA	; 250
     f5a:	94 e0       	ldi	r25, 0x04	; 4
     f5c:	0e 94 1b 02 	call	0x436	; 0x436 <send_to_uArm>
																//P = Printing moves
																//R = Retract only (no X, Y, Z) moves
																//T = Travel (non printing) moves
						send_to_uArm("M2232 V0\n");	//Gripper open: 1 close / 0 open
     f60:	8f e2       	ldi	r24, 0x2F	; 47
     f62:	94 e0       	ldi	r25, 0x04	; 4
     f64:	0e 94 1b 02 	call	0x436	; 0x436 <send_to_uArm>
						send_to_uArm("G0 X200 Y0 Z100 F10000\n");
     f68:	8a e2       	ldi	r24, 0x2A	; 42
     f6a:	95 e0       	ldi	r25, 0x05	; 5
     f6c:	0e 94 1b 02 	call	0x436	; 0x436 <send_to_uArm>
						send_to_uArm("G2202 N0 V90\n");//ist Mitte Basemotor schwenkt							
     f70:	82 e4       	ldi	r24, 0x42	; 66
     f72:	95 e0       	ldi	r25, 0x05	; 5
     f74:	0e 94 1b 02 	call	0x436	; 0x436 <send_to_uArm>
						DIP_Switch=get_DIP_Switch();
     f78:	0e 94 81 00 	call	0x102	; 0x102 <get_DIP_Switch>
     f7c:	80 93 2a 06 	sts	0x062A, r24
						while(DIP_Switch==0x81)
     f80:	7a c0       	rjmp	.+244    	; 0x1076 <main+0x718>
						{
							DIP_Switch=get_DIP_Switch();
     f82:	0e 94 81 00 	call	0x102	; 0x102 <get_DIP_Switch>
     f86:	80 93 2a 06 	sts	0x062A, r24
							send_to_uArm("G0 X200 Y0 Z0 F10000\n"); //90° ist Mitte, also jetzt 60° nach links von hinten gesehen						
     f8a:	80 e5       	ldi	r24, 0x50	; 80
     f8c:	95 e0       	ldi	r25, 0x05	; 5
     f8e:	0e 94 1b 02 	call	0x436	; 0x436 <send_to_uArm>
							send_to_uArm("G0 X200 Y0 Z-15 F2000\n");
     f92:	86 e6       	ldi	r24, 0x66	; 102
     f94:	95 e0       	ldi	r25, 0x05	; 5
     f96:	0e 94 1b 02 	call	0x436	; 0x436 <send_to_uArm>
							send_to_uArm("M2232 V1\n");	//Gripper close: 1 close / 0 open
     f9a:	80 e4       	ldi	r24, 0x40	; 64
     f9c:	94 e0       	ldi	r25, 0x04	; 4
     f9e:	0e 94 1b 02 	call	0x436	; 0x436 <send_to_uArm>
							wait_1ms(2000);						
     fa2:	60 ed       	ldi	r22, 0xD0	; 208
     fa4:	77 e0       	ldi	r23, 0x07	; 7
     fa6:	80 e0       	ldi	r24, 0x00	; 0
     fa8:	90 e0       	ldi	r25, 0x00	; 0
     faa:	0e 94 64 09 	call	0x12c8	; 0x12c8 <wait_1ms>
							send_to_uArm("G0 X200 Y0 Z100 F10000\n");
     fae:	8a e2       	ldi	r24, 0x2A	; 42
     fb0:	95 e0       	ldi	r25, 0x05	; 5
     fb2:	0e 94 1b 02 	call	0x436	; 0x436 <send_to_uArm>
							send_to_uArm("G2202 N0 V30\n");// Basemotor schwenkt Winkel 30° Basemotor Range 0..180°																				
     fb6:	83 ef       	ldi	r24, 0xF3	; 243
     fb8:	91 e0       	ldi	r25, 0x01	; 1
     fba:	0e 94 1b 02 	call	0x436	; 0x436 <send_to_uArm>
							x_Koordinate=Get_uArm_Koordinate('X'); //Abholen von X Koordinate
     fbe:	88 e5       	ldi	r24, 0x58	; 88
     fc0:	0e 94 9d 03 	call	0x73a	; 0x73a <Get_uArm_Koordinate>
     fc4:	90 93 40 06 	sts	0x0640, r25
     fc8:	80 93 3f 06 	sts	0x063F, r24
							y_Koordinate=Get_uArm_Koordinate('Y'); //Abholen von Y Koordinate
     fcc:	89 e5       	ldi	r24, 0x59	; 89
     fce:	0e 94 9d 03 	call	0x73a	; 0x73a <Get_uArm_Koordinate>
     fd2:	90 93 48 06 	sts	0x0648, r25
     fd6:	80 93 47 06 	sts	0x0647, r24
							z_Koordinate=Get_uArm_Koordinate('Z'); //Abholen von Z Koordinate
     fda:	8a e5       	ldi	r24, 0x5A	; 90
     fdc:	0e 94 9d 03 	call	0x73a	; 0x73a <Get_uArm_Koordinate>
     fe0:	90 93 3a 06 	sts	0x063A, r25
     fe4:	80 93 39 06 	sts	0x0639, r24
							speed=10000;
     fe8:	80 e1       	ldi	r24, 0x10	; 16
     fea:	97 e2       	ldi	r25, 0x27	; 39
     fec:	90 93 01 01 	sts	0x0101, r25
     ff0:	80 93 00 01 	sts	0x0100, r24
							uArm_goto_xyz(x_Koordinate,y_Koordinate,(z_Koordinate-115),speed);
     ff4:	80 91 00 01 	lds	r24, 0x0100
     ff8:	90 91 01 01 	lds	r25, 0x0101
     ffc:	9c 01       	movw	r18, r24
     ffe:	80 91 39 06 	lds	r24, 0x0639
    1002:	90 91 3a 06 	lds	r25, 0x063A
    1006:	ac 01       	movw	r20, r24
    1008:	43 57       	subi	r20, 0x73	; 115
    100a:	51 09       	sbc	r21, r1
    100c:	60 91 47 06 	lds	r22, 0x0647
    1010:	70 91 48 06 	lds	r23, 0x0648
    1014:	80 91 3f 06 	lds	r24, 0x063F
    1018:	90 91 40 06 	lds	r25, 0x0640
    101c:	0e 94 40 02 	call	0x480	; 0x480 <uArm_goto_xyz>
							send_to_uArm("M2232 V0\n");	//Gripper open: 1 close / 0 open							
    1020:	8f e2       	ldi	r24, 0x2F	; 47
    1022:	94 e0       	ldi	r25, 0x04	; 4
    1024:	0e 94 1b 02 	call	0x436	; 0x436 <send_to_uArm>
							wait_1ms(2000);
    1028:	60 ed       	ldi	r22, 0xD0	; 208
    102a:	77 e0       	ldi	r23, 0x07	; 7
    102c:	80 e0       	ldi	r24, 0x00	; 0
    102e:	90 e0       	ldi	r25, 0x00	; 0
    1030:	0e 94 64 09 	call	0x12c8	; 0x12c8 <wait_1ms>
							send_to_uArm("M2232 V1\n");	//Gripper close: 1 close / 0 open
    1034:	80 e4       	ldi	r24, 0x40	; 64
    1036:	94 e0       	ldi	r25, 0x04	; 4
    1038:	0e 94 1b 02 	call	0x436	; 0x436 <send_to_uArm>
							wait_1ms(2000);														
    103c:	60 ed       	ldi	r22, 0xD0	; 208
    103e:	77 e0       	ldi	r23, 0x07	; 7
    1040:	80 e0       	ldi	r24, 0x00	; 0
    1042:	90 e0       	ldi	r25, 0x00	; 0
    1044:	0e 94 64 09 	call	0x12c8	; 0x12c8 <wait_1ms>
							uArm_goto_xyz(x_Koordinate,y_Koordinate,z_Koordinate,speed);	
    1048:	80 91 00 01 	lds	r24, 0x0100
    104c:	90 91 01 01 	lds	r25, 0x0101
    1050:	9c 01       	movw	r18, r24
    1052:	40 91 39 06 	lds	r20, 0x0639
    1056:	50 91 3a 06 	lds	r21, 0x063A
    105a:	60 91 47 06 	lds	r22, 0x0647
    105e:	70 91 48 06 	lds	r23, 0x0648
    1062:	80 91 3f 06 	lds	r24, 0x063F
    1066:	90 91 40 06 	lds	r25, 0x0640
    106a:	0e 94 40 02 	call	0x480	; 0x480 <uArm_goto_xyz>
							send_to_uArm("G2202 N0 V90\n");//ist Mitte Basemotor schwenkt													
    106e:	82 e4       	ldi	r24, 0x42	; 66
    1070:	95 e0       	ldi	r25, 0x05	; 5
    1072:	0e 94 1b 02 	call	0x436	; 0x436 <send_to_uArm>
																//T = Travel (non printing) moves
						send_to_uArm("M2232 V0\n");	//Gripper open: 1 close / 0 open
						send_to_uArm("G0 X200 Y0 Z100 F10000\n");
						send_to_uArm("G2202 N0 V90\n");//ist Mitte Basemotor schwenkt							
						DIP_Switch=get_DIP_Switch();
						while(DIP_Switch==0x81)
    1076:	80 91 2a 06 	lds	r24, 0x062A
    107a:	81 38       	cpi	r24, 0x81	; 129
    107c:	09 f4       	brne	.+2      	; 0x1080 <main+0x722>
    107e:	81 cf       	rjmp	.-254    	; 0xf82 <main+0x624>
							send_to_uArm("M2232 V1\n");	//Gripper close: 1 close / 0 open
							wait_1ms(2000);														
							uArm_goto_xyz(x_Koordinate,y_Koordinate,z_Koordinate,speed);	
							send_to_uArm("G2202 N0 V90\n");//ist Mitte Basemotor schwenkt													
						}
						break;	
    1080:	70 c0       	rjmp	.+224    	; 0x1162 <__stack+0x63>
						
			case 0x82:	//Einfaches Pick and Place mit Gripper, für schnelle Bewegungen nur Schwenkbewegungen
						//Die Beschleunigung wird erhöht auf T=300
						send_to_uArm("M204 P300 T300 R300\n");	//Beschleunigung setzen P,T,R Werte 0..300 (Standardwerte P,T,R=200 )
    1082:	8a ef       	ldi	r24, 0xFA	; 250
    1084:	94 e0       	ldi	r25, 0x04	; 4
    1086:	0e 94 1b 02 	call	0x436	; 0x436 <send_to_uArm>
																//P = Printing moves
																//R = Retract only (no X, Y, Z) moves
																//T = Travel (non printing) moves
						send_to_uArm("G0 X200 Y0 Z20 F10000\n");						
    108a:	8d e7       	ldi	r24, 0x7D	; 125
    108c:	95 e0       	ldi	r25, 0x05	; 5
    108e:	0e 94 1b 02 	call	0x436	; 0x436 <send_to_uArm>

						DIP_Switch=get_DIP_Switch();
    1092:	0e 94 81 00 	call	0x102	; 0x102 <get_DIP_Switch>
    1096:	80 93 2a 06 	sts	0x062A, r24
						while(DIP_Switch==0x82)
    109a:	54 c0       	rjmp	.+168    	; 0x1144 <__stack+0x45>
						{
							DIP_Switch=get_DIP_Switch();
    109c:	0e 94 81 00 	call	0x102	; 0x102 <get_DIP_Switch>
    10a0:	80 93 2a 06 	sts	0x062A, r24
							send_to_uArm("G2202 N1 V40\n");//Motor2, gripper nahe am Boden
    10a4:	84 e9       	ldi	r24, 0x94	; 148
    10a6:	95 e0       	ldi	r25, 0x05	; 5
    10a8:	0e 94 1b 02 	call	0x436	; 0x436 <send_to_uArm>
							wait_1ms(1000);
    10ac:	68 ee       	ldi	r22, 0xE8	; 232
    10ae:	73 e0       	ldi	r23, 0x03	; 3
    10b0:	80 e0       	ldi	r24, 0x00	; 0
    10b2:	90 e0       	ldi	r25, 0x00	; 0
    10b4:	0e 94 64 09 	call	0x12c8	; 0x12c8 <wait_1ms>
							send_to_uArm("M2232 V0\n");	//Gripper open: 1 close / 0 open
    10b8:	8f e2       	ldi	r24, 0x2F	; 47
    10ba:	94 e0       	ldi	r25, 0x04	; 4
    10bc:	0e 94 1b 02 	call	0x436	; 0x436 <send_to_uArm>
							wait_1ms(1000);															
    10c0:	68 ee       	ldi	r22, 0xE8	; 232
    10c2:	73 e0       	ldi	r23, 0x03	; 3
    10c4:	80 e0       	ldi	r24, 0x00	; 0
    10c6:	90 e0       	ldi	r25, 0x00	; 0
    10c8:	0e 94 64 09 	call	0x12c8	; 0x12c8 <wait_1ms>
							send_to_uArm("M2232 V1\n");	//Gripper close: 1 close / 0 open
    10cc:	80 e4       	ldi	r24, 0x40	; 64
    10ce:	94 e0       	ldi	r25, 0x04	; 4
    10d0:	0e 94 1b 02 	call	0x436	; 0x436 <send_to_uArm>
							wait_1ms(1000);									
    10d4:	68 ee       	ldi	r22, 0xE8	; 232
    10d6:	73 e0       	ldi	r23, 0x03	; 3
    10d8:	80 e0       	ldi	r24, 0x00	; 0
    10da:	90 e0       	ldi	r25, 0x00	; 0
    10dc:	0e 94 64 09 	call	0x12c8	; 0x12c8 <wait_1ms>
							send_to_uArm("G2202 N1 V70\n");//Motor3 40° Gripper abheben
    10e0:	82 ea       	ldi	r24, 0xA2	; 162
    10e2:	95 e0       	ldi	r25, 0x05	; 5
    10e4:	0e 94 1b 02 	call	0x436	; 0x436 <send_to_uArm>
							send_to_uArm("G2202 N0 V60\n");//ist Mitte Basemotor schwenkt
    10e8:	80 eb       	ldi	r24, 0xB0	; 176
    10ea:	95 e0       	ldi	r25, 0x05	; 5
    10ec:	0e 94 1b 02 	call	0x436	; 0x436 <send_to_uArm>
							send_to_uArm("G2202 N1 V40\n");//Motor2, gripper nahe am Boden
    10f0:	84 e9       	ldi	r24, 0x94	; 148
    10f2:	95 e0       	ldi	r25, 0x05	; 5
    10f4:	0e 94 1b 02 	call	0x436	; 0x436 <send_to_uArm>
							wait_1ms(1000);															
    10f8:	68 ee       	ldi	r22, 0xE8	; 232
    10fa:	73 e0       	ldi	r23, 0x03	; 3
    10fc:	80 e0       	ldi	r24, 0x00	; 0
    10fe:	90 e0       	ldi	r25, 0x00	; 0
    1100:	0e 94 64 09 	call	0x12c8	; 0x12c8 <wait_1ms>
							send_to_uArm("M2232 V0\n");	//Gripper open: 1 close / 0 open							
    1104:	8f e2       	ldi	r24, 0x2F	; 47
    1106:	94 e0       	ldi	r25, 0x04	; 4
    1108:	0e 94 1b 02 	call	0x436	; 0x436 <send_to_uArm>
							wait_1ms(1000);								
    110c:	68 ee       	ldi	r22, 0xE8	; 232
    110e:	73 e0       	ldi	r23, 0x03	; 3
    1110:	80 e0       	ldi	r24, 0x00	; 0
    1112:	90 e0       	ldi	r25, 0x00	; 0
    1114:	0e 94 64 09 	call	0x12c8	; 0x12c8 <wait_1ms>
							send_to_uArm("M2232 V1\n");	//Gripper close: 1 close / 0 open
    1118:	80 e4       	ldi	r24, 0x40	; 64
    111a:	94 e0       	ldi	r25, 0x04	; 4
    111c:	0e 94 1b 02 	call	0x436	; 0x436 <send_to_uArm>
							wait_1ms(1000);
    1120:	68 ee       	ldi	r22, 0xE8	; 232
    1122:	73 e0       	ldi	r23, 0x03	; 3
    1124:	80 e0       	ldi	r24, 0x00	; 0
    1126:	90 e0       	ldi	r25, 0x00	; 0
    1128:	0e 94 64 09 	call	0x12c8	; 0x12c8 <wait_1ms>
							send_to_uArm("G2202 N1 V70\n");//Motor2 40° Gripper abheben
    112c:	82 ea       	ldi	r24, 0xA2	; 162
    112e:	95 e0       	ldi	r25, 0x05	; 5
    1130:	0e 94 1b 02 	call	0x436	; 0x436 <send_to_uArm>
							send_to_uArm("G2202 N0 V90\n");//ist Mitte Basemotor schwenkt
    1134:	82 e4       	ldi	r24, 0x42	; 66
    1136:	95 e0       	ldi	r25, 0x05	; 5
    1138:	0e 94 1b 02 	call	0x436	; 0x436 <send_to_uArm>
							send_to_uArm("G2202 N1 V40\n");//Motor2, gripper nahe am Boden							
    113c:	84 e9       	ldi	r24, 0x94	; 148
    113e:	95 e0       	ldi	r25, 0x05	; 5
    1140:	0e 94 1b 02 	call	0x436	; 0x436 <send_to_uArm>
																//R = Retract only (no X, Y, Z) moves
																//T = Travel (non printing) moves
						send_to_uArm("G0 X200 Y0 Z20 F10000\n");						

						DIP_Switch=get_DIP_Switch();
						while(DIP_Switch==0x82)
    1144:	80 91 2a 06 	lds	r24, 0x062A
    1148:	82 38       	cpi	r24, 0x82	; 130
    114a:	09 f4       	brne	.+2      	; 0x114e <__stack+0x4f>
    114c:	a7 cf       	rjmp	.-178    	; 0x109c <main+0x73e>
							wait_1ms(1000);
							send_to_uArm("G2202 N1 V70\n");//Motor2 40° Gripper abheben
							send_to_uArm("G2202 N0 V90\n");//ist Mitte Basemotor schwenkt
							send_to_uArm("G2202 N1 V40\n");//Motor2, gripper nahe am Boden							
						}
						break;
    114e:	09 c0       	rjmp	.+18     	; 0x1162 <__stack+0x63>
			default:	send_to_uArm("G0 X200 Y0 Z100 F10000\n");	//Wichtig als Startposition!
    1150:	8a e2       	ldi	r24, 0x2A	; 42
    1152:	95 e0       	ldi	r25, 0x05	; 5
    1154:	0e 94 1b 02 	call	0x436	; 0x436 <send_to_uArm>
						send_to_uArm("M2231 V0\n");	//Pumpe ausschalten																									
    1158:	8c e5       	ldi	r24, 0x5C	; 92
    115a:	91 e0       	ldi	r25, 0x01	; 1
    115c:	0e 94 1b 02 	call	0x436	; 0x436 <send_to_uArm>
						break;
    1160:	00 00       	nop
		} //end Switch
	} //end while(1)
    1162:	16 cc       	rjmp	.-2004   	; 0x990 <main+0x32>

00001164 <init_Timer0_1ms_int>:
u32 tick_1s						= 0;
u16 LCD_Refresh_Time_cnt		= LCD_Refresh_Time;
u8  write_RGB_LCD_activ = 0;

void init_Timer0_1ms_int(void)
{
    1164:	cf 93       	push	r28
    1166:	df 93       	push	r29
    1168:	cd b7       	in	r28, 0x3d	; 61
    116a:	de b7       	in	r29, 0x3e	; 62
	// Initialisierung Timer0 1ms Interrupt
	TCCR0A |= (1 <<   WGM01);	//CTC with OCRA (Timer Counter Compare: Counter zählt bis OCRA, dann Counter Neustart)
    116c:	84 e4       	ldi	r24, 0x44	; 68
    116e:	90 e0       	ldi	r25, 0x00	; 0
    1170:	24 e4       	ldi	r18, 0x44	; 68
    1172:	30 e0       	ldi	r19, 0x00	; 0
    1174:	f9 01       	movw	r30, r18
    1176:	20 81       	ld	r18, Z
    1178:	22 60       	ori	r18, 0x02	; 2
    117a:	fc 01       	movw	r30, r24
    117c:	20 83       	st	Z, r18
	TCCR0B |= (1 <<   CS01) | (1 >> CS00);	//16MHz / 64 = 4us
    117e:	85 e4       	ldi	r24, 0x45	; 69
    1180:	90 e0       	ldi	r25, 0x00	; 0
    1182:	25 e4       	ldi	r18, 0x45	; 69
    1184:	30 e0       	ldi	r19, 0x00	; 0
    1186:	f9 01       	movw	r30, r18
    1188:	20 81       	ld	r18, Z
    118a:	23 60       	ori	r18, 0x03	; 3
    118c:	fc 01       	movw	r30, r24
    118e:	20 83       	st	Z, r18
	OCR0A = 250-1;	//250 * 4us = 1ms
    1190:	87 e4       	ldi	r24, 0x47	; 71
    1192:	90 e0       	ldi	r25, 0x00	; 0
    1194:	29 ef       	ldi	r18, 0xF9	; 249
    1196:	fc 01       	movw	r30, r24
    1198:	20 83       	st	Z, r18
	TIMSK0 |= (1 << OCIE0A);
    119a:	8e e6       	ldi	r24, 0x6E	; 110
    119c:	90 e0       	ldi	r25, 0x00	; 0
    119e:	2e e6       	ldi	r18, 0x6E	; 110
    11a0:	30 e0       	ldi	r19, 0x00	; 0
    11a2:	f9 01       	movw	r30, r18
    11a4:	20 81       	ld	r18, Z
    11a6:	22 60       	ori	r18, 0x02	; 2
    11a8:	fc 01       	movw	r30, r24
    11aa:	20 83       	st	Z, r18
}
    11ac:	df 91       	pop	r29
    11ae:	cf 91       	pop	r28
    11b0:	08 95       	ret

000011b2 <__vector_16>:

ISR (TIMER0_COMPA_vect) // Dieser Timer-Interrupt löst im 1ms-Takt aus.
{
    11b2:	1f 92       	push	r1
    11b4:	0f 92       	push	r0
    11b6:	00 90 5f 00 	lds	r0, 0x005F
    11ba:	0f 92       	push	r0
    11bc:	11 24       	eor	r1, r1
    11be:	2f 93       	push	r18
    11c0:	3f 93       	push	r19
    11c2:	4f 93       	push	r20
    11c4:	5f 93       	push	r21
    11c6:	6f 93       	push	r22
    11c8:	7f 93       	push	r23
    11ca:	8f 93       	push	r24
    11cc:	9f 93       	push	r25
    11ce:	af 93       	push	r26
    11d0:	bf 93       	push	r27
    11d2:	ef 93       	push	r30
    11d4:	ff 93       	push	r31
    11d6:	cf 93       	push	r28
    11d8:	df 93       	push	r29
    11da:	00 d0       	rcall	.+0      	; 0x11dc <__vector_16+0x2a>
    11dc:	00 d0       	rcall	.+0      	; 0x11de <__vector_16+0x2c>
    11de:	cd b7       	in	r28, 0x3d	; 61
    11e0:	de b7       	in	r29, 0x3e	; 62
	tick_1ms++;
    11e2:	80 91 31 06 	lds	r24, 0x0631
    11e6:	90 91 32 06 	lds	r25, 0x0632
    11ea:	a0 91 33 06 	lds	r26, 0x0633
    11ee:	b0 91 34 06 	lds	r27, 0x0634
    11f2:	01 96       	adiw	r24, 0x01	; 1
    11f4:	a1 1d       	adc	r26, r1
    11f6:	b1 1d       	adc	r27, r1
    11f8:	80 93 31 06 	sts	0x0631, r24
    11fc:	90 93 32 06 	sts	0x0632, r25
    1200:	a0 93 33 06 	sts	0x0633, r26
    1204:	b0 93 34 06 	sts	0x0634, r27
	if(! (tick_1ms%1000) ) tick_1s++;
    1208:	80 91 31 06 	lds	r24, 0x0631
    120c:	90 91 32 06 	lds	r25, 0x0632
    1210:	a0 91 33 06 	lds	r26, 0x0633
    1214:	b0 91 34 06 	lds	r27, 0x0634
    1218:	28 ee       	ldi	r18, 0xE8	; 232
    121a:	33 e0       	ldi	r19, 0x03	; 3
    121c:	40 e0       	ldi	r20, 0x00	; 0
    121e:	50 e0       	ldi	r21, 0x00	; 0
    1220:	bc 01       	movw	r22, r24
    1222:	cd 01       	movw	r24, r26
    1224:	0e 94 55 0b 	call	0x16aa	; 0x16aa <__udivmodsi4>
    1228:	dc 01       	movw	r26, r24
    122a:	cb 01       	movw	r24, r22
    122c:	00 97       	sbiw	r24, 0x00	; 0
    122e:	a1 05       	cpc	r26, r1
    1230:	b1 05       	cpc	r27, r1
    1232:	99 f4       	brne	.+38     	; 0x125a <__vector_16+0xa8>
    1234:	80 91 2d 06 	lds	r24, 0x062D
    1238:	90 91 2e 06 	lds	r25, 0x062E
    123c:	a0 91 2f 06 	lds	r26, 0x062F
    1240:	b0 91 30 06 	lds	r27, 0x0630
    1244:	01 96       	adiw	r24, 0x01	; 1
    1246:	a1 1d       	adc	r26, r1
    1248:	b1 1d       	adc	r27, r1
    124a:	80 93 2d 06 	sts	0x062D, r24
    124e:	90 93 2e 06 	sts	0x062E, r25
    1252:	a0 93 2f 06 	sts	0x062F, r26
    1256:	b0 93 30 06 	sts	0x0630, r27
	if(tick_1ms_cnt > 0) tick_1ms_cnt--;										// Wird für 1ms-Tick benötigt
    125a:	80 91 35 06 	lds	r24, 0x0635
    125e:	90 91 36 06 	lds	r25, 0x0636
    1262:	a0 91 37 06 	lds	r26, 0x0637
    1266:	b0 91 38 06 	lds	r27, 0x0638
    126a:	00 97       	sbiw	r24, 0x00	; 0
    126c:	a1 05       	cpc	r26, r1
    126e:	b1 05       	cpc	r27, r1
    1270:	99 f0       	breq	.+38     	; 0x1298 <__vector_16+0xe6>
    1272:	80 91 35 06 	lds	r24, 0x0635
    1276:	90 91 36 06 	lds	r25, 0x0636
    127a:	a0 91 37 06 	lds	r26, 0x0637
    127e:	b0 91 38 06 	lds	r27, 0x0638
    1282:	01 97       	sbiw	r24, 0x01	; 1
    1284:	a1 09       	sbc	r26, r1
    1286:	b1 09       	sbc	r27, r1
    1288:	80 93 35 06 	sts	0x0635, r24
    128c:	90 93 36 06 	sts	0x0636, r25
    1290:	a0 93 37 06 	sts	0x0637, r26
    1294:	b0 93 38 06 	sts	0x0638, r27
}
    1298:	0f 90       	pop	r0
    129a:	0f 90       	pop	r0
    129c:	0f 90       	pop	r0
    129e:	0f 90       	pop	r0
    12a0:	df 91       	pop	r29
    12a2:	cf 91       	pop	r28
    12a4:	ff 91       	pop	r31
    12a6:	ef 91       	pop	r30
    12a8:	bf 91       	pop	r27
    12aa:	af 91       	pop	r26
    12ac:	9f 91       	pop	r25
    12ae:	8f 91       	pop	r24
    12b0:	7f 91       	pop	r23
    12b2:	6f 91       	pop	r22
    12b4:	5f 91       	pop	r21
    12b6:	4f 91       	pop	r20
    12b8:	3f 91       	pop	r19
    12ba:	2f 91       	pop	r18
    12bc:	0f 90       	pop	r0
    12be:	00 92 5f 00 	sts	0x005F, r0
    12c2:	0f 90       	pop	r0
    12c4:	1f 90       	pop	r1
    12c6:	18 95       	reti

000012c8 <wait_1ms>:

void wait_1ms(u32 delay)
{
    12c8:	cf 93       	push	r28
    12ca:	df 93       	push	r29
    12cc:	00 d0       	rcall	.+0      	; 0x12ce <wait_1ms+0x6>
    12ce:	00 d0       	rcall	.+0      	; 0x12d0 <wait_1ms+0x8>
    12d0:	cd b7       	in	r28, 0x3d	; 61
    12d2:	de b7       	in	r29, 0x3e	; 62
    12d4:	69 83       	std	Y+1, r22	; 0x01
    12d6:	7a 83       	std	Y+2, r23	; 0x02
    12d8:	8b 83       	std	Y+3, r24	; 0x03
    12da:	9c 83       	std	Y+4, r25	; 0x04
	if (delay != 0) tick_1ms_cnt = delay; else tick_1ms_cnt = 1;
    12dc:	89 81       	ldd	r24, Y+1	; 0x01
    12de:	9a 81       	ldd	r25, Y+2	; 0x02
    12e0:	ab 81       	ldd	r26, Y+3	; 0x03
    12e2:	bc 81       	ldd	r27, Y+4	; 0x04
    12e4:	00 97       	sbiw	r24, 0x00	; 0
    12e6:	a1 05       	cpc	r26, r1
    12e8:	b1 05       	cpc	r27, r1
    12ea:	69 f0       	breq	.+26     	; 0x1306 <wait_1ms+0x3e>
    12ec:	89 81       	ldd	r24, Y+1	; 0x01
    12ee:	9a 81       	ldd	r25, Y+2	; 0x02
    12f0:	ab 81       	ldd	r26, Y+3	; 0x03
    12f2:	bc 81       	ldd	r27, Y+4	; 0x04
    12f4:	80 93 35 06 	sts	0x0635, r24
    12f8:	90 93 36 06 	sts	0x0636, r25
    12fc:	a0 93 37 06 	sts	0x0637, r26
    1300:	b0 93 38 06 	sts	0x0638, r27
	while(tick_1ms_cnt != 0);
    1304:	0c c0       	rjmp	.+24     	; 0x131e <wait_1ms+0x56>
	if(tick_1ms_cnt > 0) tick_1ms_cnt--;										// Wird für 1ms-Tick benötigt
}

void wait_1ms(u32 delay)
{
	if (delay != 0) tick_1ms_cnt = delay; else tick_1ms_cnt = 1;
    1306:	81 e0       	ldi	r24, 0x01	; 1
    1308:	90 e0       	ldi	r25, 0x00	; 0
    130a:	a0 e0       	ldi	r26, 0x00	; 0
    130c:	b0 e0       	ldi	r27, 0x00	; 0
    130e:	80 93 35 06 	sts	0x0635, r24
    1312:	90 93 36 06 	sts	0x0636, r25
    1316:	a0 93 37 06 	sts	0x0637, r26
    131a:	b0 93 38 06 	sts	0x0638, r27
	while(tick_1ms_cnt != 0);
    131e:	00 00       	nop
    1320:	80 91 35 06 	lds	r24, 0x0635
    1324:	90 91 36 06 	lds	r25, 0x0636
    1328:	a0 91 37 06 	lds	r26, 0x0637
    132c:	b0 91 38 06 	lds	r27, 0x0638
    1330:	00 97       	sbiw	r24, 0x00	; 0
    1332:	a1 05       	cpc	r26, r1
    1334:	b1 05       	cpc	r27, r1
    1336:	a1 f7       	brne	.-24     	; 0x1320 <wait_1ms+0x58>
}
    1338:	0f 90       	pop	r0
    133a:	0f 90       	pop	r0
    133c:	0f 90       	pop	r0
    133e:	0f 90       	pop	r0
    1340:	df 91       	pop	r29
    1342:	cf 91       	pop	r28
    1344:	08 95       	ret

00001346 <delay_nop>:

void delay_nop(u8 time)				// time = 1 ==> Delay = 2.08us
															// time > 1 ==> Delay = time * 0.62us
{ u8 i;
    1346:	cf 93       	push	r28
    1348:	df 93       	push	r29
    134a:	00 d0       	rcall	.+0      	; 0x134c <delay_nop+0x6>
    134c:	cd b7       	in	r28, 0x3d	; 61
    134e:	de b7       	in	r29, 0x3e	; 62
    1350:	8a 83       	std	Y+2, r24	; 0x02
	for(i=0; i<time; i++) __asm__ __volatile__ ("nop");
    1352:	19 82       	std	Y+1, r1	; 0x01
    1354:	04 c0       	rjmp	.+8      	; 0x135e <delay_nop+0x18>
    1356:	00 00       	nop
    1358:	89 81       	ldd	r24, Y+1	; 0x01
    135a:	8f 5f       	subi	r24, 0xFF	; 255
    135c:	89 83       	std	Y+1, r24	; 0x01
    135e:	99 81       	ldd	r25, Y+1	; 0x01
    1360:	8a 81       	ldd	r24, Y+2	; 0x02
    1362:	98 17       	cp	r25, r24
    1364:	c0 f3       	brcs	.-16     	; 0x1356 <delay_nop+0x10>
}
    1366:	0f 90       	pop	r0
    1368:	0f 90       	pop	r0
    136a:	df 91       	pop	r29
    136c:	cf 91       	pop	r28
    136e:	08 95       	ret

00001370 <write_lcd_f>:
#define LCD_SCLK_1				(PORTC |=  0x02)	//PC.1: LCD SCLK = 1

void write_lcd_f(u8 rs, u8 wert)
{	unsigned char i;
	
	write_RGB_LCD_activ = 1;
    1370:	91 e0       	ldi	r25, 0x01	; 1
    1372:	90 93 2c 06 	sts	0x062C, r25
	// LCD: EDIP204	
	//Manche Befehle müssen mehrfach ausgeführt werden, damit die minimale Pulslänge von xxx ns eingehalten wird. (bei 8MHz)

	//Synchronisierung: Clock-Signal 5x toggeln
	LCD_SOD_1;																			// Während nachfolgend 5 Synch-Bits gesendet werden muss SOD = 1 sein.
    1376:	40 9a       	sbi	0x08, 0	; 8
	LCD_SCLK_0;LCD_SCLK_0; LCD_SCLK_1;LCD_SCLK_1;		// Pulsbreite je 500ns (Keine Schleife verwenden, da sonst Laufzeit unnötig grösser wird.)
    1378:	41 98       	cbi	0x08, 1	; 8
    137a:	41 98       	cbi	0x08, 1	; 8
    137c:	41 9a       	sbi	0x08, 1	; 8
    137e:	41 9a       	sbi	0x08, 1	; 8
	LCD_SCLK_0;LCD_SCLK_0; LCD_SCLK_1;LCD_SCLK_1;
    1380:	41 98       	cbi	0x08, 1	; 8
    1382:	41 98       	cbi	0x08, 1	; 8
    1384:	41 9a       	sbi	0x08, 1	; 8
    1386:	41 9a       	sbi	0x08, 1	; 8
	LCD_SCLK_0;LCD_SCLK_0; LCD_SCLK_1;LCD_SCLK_1;
    1388:	41 98       	cbi	0x08, 1	; 8
    138a:	41 98       	cbi	0x08, 1	; 8
    138c:	41 9a       	sbi	0x08, 1	; 8
    138e:	41 9a       	sbi	0x08, 1	; 8
	LCD_SCLK_0;LCD_SCLK_0; LCD_SCLK_1;LCD_SCLK_1;
    1390:	41 98       	cbi	0x08, 1	; 8
    1392:	41 98       	cbi	0x08, 1	; 8
    1394:	41 9a       	sbi	0x08, 1	; 8
    1396:	41 9a       	sbi	0x08, 1	; 8
	LCD_SCLK_0;LCD_SCLK_0; LCD_SCLK_1;
    1398:	41 98       	cbi	0x08, 1	; 8
    139a:	41 98       	cbi	0x08, 1	; 8
    139c:	41 9a       	sbi	0x08, 1	; 8
	
	//R/W: 1=Read, 0=Write
	LCD_SOD_0;																									// R/W = 0
    139e:	40 98       	cbi	0x08, 0	; 8
	LCD_SCLK_0;LCD_SCLK_0; LCD_SCLK_1;													// R/W-Bit senden
    13a0:	41 98       	cbi	0x08, 1	; 8
    13a2:	41 98       	cbi	0x08, 1	; 8
    13a4:	41 9a       	sbi	0x08, 1	; 8
	
	//RS Register Selection: 0=Command, 1=Data
	if (rs == 'C') LCD_SOD_0; else LCD_SOD_1; 
    13a6:	83 34       	cpi	r24, 0x43	; 67
    13a8:	a9 f1       	breq	.+106    	; 0x1414 <write_lcd_f+0xa4>
    13aa:	40 9a       	sbi	0x08, 0	; 8
	LCD_SCLK_0;LCD_SCLK_0; LCD_SCLK_1;													// RS-Bit senden
    13ac:	41 98       	cbi	0x08, 1	; 8
    13ae:	41 98       	cbi	0x08, 1	; 8
    13b0:	41 9a       	sbi	0x08, 1	; 8

	//End-Marke 0
	LCD_SOD_0;
    13b2:	40 98       	cbi	0x08, 0	; 8
	LCD_SCLK_0;LCD_SCLK_0; LCD_SCLK_1;													// END-Bit senden
    13b4:	41 98       	cbi	0x08, 1	; 8
    13b6:	41 98       	cbi	0x08, 1	; 8
    13b8:	41 9a       	sbi	0x08, 1	; 8
    13ba:	84 e0       	ldi	r24, 0x04	; 4
	
	for (i = 0; i < 4; i++)																			// Daten-Bit 0-3 senden
	{ LCD_SCLK_0;
    13bc:	41 98       	cbi	0x08, 1	; 8
		if (wert & 0x01) LCD_SOD_1; else LCD_SOD_0;
    13be:	60 ff       	sbrs	r22, 0
    13c0:	27 c0       	rjmp	.+78     	; 0x1410 <write_lcd_f+0xa0>
    13c2:	40 9a       	sbi	0x08, 0	; 8
		wert = wert >> 1;
    13c4:	66 95       	lsr	r22
		LCD_SCLK_0;	LCD_SCLK_1;
    13c6:	41 98       	cbi	0x08, 1	; 8
    13c8:	41 9a       	sbi	0x08, 1	; 8
    13ca:	81 50       	subi	r24, 0x01	; 1

	//End-Marke 0
	LCD_SOD_0;
	LCD_SCLK_0;LCD_SCLK_0; LCD_SCLK_1;													// END-Bit senden
	
	for (i = 0; i < 4; i++)																			// Daten-Bit 0-3 senden
    13cc:	b9 f7       	brne	.-18     	; 0x13bc <write_lcd_f+0x4c>
		if (wert & 0x01) LCD_SOD_1; else LCD_SOD_0;
		wert = wert >> 1;
		LCD_SCLK_0;	LCD_SCLK_1;
	}

	LCD_SOD_0;																									// 4x "0" senden
    13ce:	40 98       	cbi	0x08, 0	; 8
    13d0:	84 e0       	ldi	r24, 0x04	; 4
	for (i = 0; i < 4; i++) {LCD_SCLK_0;LCD_SCLK_0; LCD_SCLK_1;}
    13d2:	41 98       	cbi	0x08, 1	; 8
    13d4:	41 98       	cbi	0x08, 1	; 8
    13d6:	41 9a       	sbi	0x08, 1	; 8
    13d8:	81 50       	subi	r24, 0x01	; 1
    13da:	d9 f7       	brne	.-10     	; 0x13d2 <write_lcd_f+0x62>
    13dc:	84 e0       	ldi	r24, 0x04	; 4
	
	for (i = 0; i < 4; i++)																			// Daten-Bit 4-7 senden
	{ LCD_SCLK_0;
    13de:	41 98       	cbi	0x08, 1	; 8
		if (wert & 0x01) LCD_SOD_1; else LCD_SOD_0;
    13e0:	60 ff       	sbrs	r22, 0
    13e2:	14 c0       	rjmp	.+40     	; 0x140c <write_lcd_f+0x9c>
    13e4:	40 9a       	sbi	0x08, 0	; 8
		wert = wert >> 1;
    13e6:	66 95       	lsr	r22
		LCD_SCLK_0;	LCD_SCLK_1;
    13e8:	41 98       	cbi	0x08, 1	; 8
    13ea:	41 9a       	sbi	0x08, 1	; 8
    13ec:	81 50       	subi	r24, 0x01	; 1
	}

	LCD_SOD_0;																									// 4x "0" senden
	for (i = 0; i < 4; i++) {LCD_SCLK_0;LCD_SCLK_0; LCD_SCLK_1;}
	
	for (i = 0; i < 4; i++)																			// Daten-Bit 4-7 senden
    13ee:	b9 f7       	brne	.-18     	; 0x13de <write_lcd_f+0x6e>
		if (wert & 0x01) LCD_SOD_1; else LCD_SOD_0;
		wert = wert >> 1;
		LCD_SCLK_0;	LCD_SCLK_1;
	}

	LCD_SOD_0;																									// 4x "0" senden
    13f0:	40 98       	cbi	0x08, 0	; 8
    13f2:	84 e0       	ldi	r24, 0x04	; 4
	for (i = 0; i < 4; i++)	{LCD_SCLK_0;LCD_SCLK_0; LCD_SCLK_1;}
    13f4:	41 98       	cbi	0x08, 1	; 8
    13f6:	41 98       	cbi	0x08, 1	; 8
    13f8:	41 9a       	sbi	0x08, 1	; 8
    13fa:	81 50       	subi	r24, 0x01	; 1
    13fc:	d9 f7       	brne	.-10     	; 0x13f4 <write_lcd_f+0x84>
    13fe:	84 e1       	ldi	r24, 0x14	; 20

	// Write-Befehl auf 50us verlängern, damit minimale Execution-Time 39us/43us eingehalten ist.
	for (i = 0; i < 20; i++) LCD_SOD_1;
    1400:	40 9a       	sbi	0x08, 0	; 8
    1402:	81 50       	subi	r24, 0x01	; 1
    1404:	e9 f7       	brne	.-6      	; 0x1400 <write_lcd_f+0x90>
	write_RGB_LCD_activ = 0;
    1406:	10 92 2c 06 	sts	0x062C, r1
    140a:	08 95       	ret
	LCD_SOD_0;																									// 4x "0" senden
	for (i = 0; i < 4; i++) {LCD_SCLK_0;LCD_SCLK_0; LCD_SCLK_1;}
	
	for (i = 0; i < 4; i++)																			// Daten-Bit 4-7 senden
	{ LCD_SCLK_0;
		if (wert & 0x01) LCD_SOD_1; else LCD_SOD_0;
    140c:	40 98       	cbi	0x08, 0	; 8
    140e:	eb cf       	rjmp	.-42     	; 0x13e6 <write_lcd_f+0x76>
	LCD_SOD_0;
	LCD_SCLK_0;LCD_SCLK_0; LCD_SCLK_1;													// END-Bit senden
	
	for (i = 0; i < 4; i++)																			// Daten-Bit 0-3 senden
	{ LCD_SCLK_0;
		if (wert & 0x01) LCD_SOD_1; else LCD_SOD_0;
    1410:	40 98       	cbi	0x08, 0	; 8
    1412:	d8 cf       	rjmp	.-80     	; 0x13c4 <write_lcd_f+0x54>
	//R/W: 1=Read, 0=Write
	LCD_SOD_0;																									// R/W = 0
	LCD_SCLK_0;LCD_SCLK_0; LCD_SCLK_1;													// R/W-Bit senden
	
	//RS Register Selection: 0=Command, 1=Data
	if (rs == 'C') LCD_SOD_0; else LCD_SOD_1; 
    1414:	40 98       	cbi	0x08, 0	; 8
    1416:	ca cf       	rjmp	.-108    	; 0x13ac <write_lcd_f+0x3c>

00001418 <write_text>:
  y_pos:   Zeile-Nummer (0..3)
  x_pos:   Spalte-Nummer (0..19) (Zeichenposition auf Zeile)
  str_ptr: Adresse des zu schreibenden Textes
***********************************************************************************/
void write_text(u8 y_pos, u8 x_pos, const char* str_ptr)
{	u8 wert, str_p = 0;
    1418:	1f 93       	push	r17
    141a:	cf 93       	push	r28
    141c:	df 93       	push	r29
    141e:	ea 01       	movw	r28, r20
	
	x_pos += y_pos * 0x20;																					// Position auf LCD berechnen 4x20 Zeichen
    1420:	90 e2       	ldi	r25, 0x20	; 32
    1422:	89 9f       	mul	r24, r25
    1424:	60 0d       	add	r22, r0
    1426:	11 24       	eor	r1, r1
	write_lcd_f ('C',x_pos | 0x80);																	// LCD-Cursor auf gewünsschte Adresse setzen = Position auf LCD
    1428:	60 68       	ori	r22, 0x80	; 128
    142a:	83 e4       	ldi	r24, 0x43	; 67
    142c:	0e 94 b8 09 	call	0x1370	; 0x1370 <write_lcd_f>
	wert = pgm_read_byte(&str_ptr[str_p++]);
    1430:	fe 01       	movw	r30, r28
    1432:	64 91       	lpm	r22, Z
	while(wert != 0)
    1434:	66 23       	and	r22, r22
    1436:	71 f0       	breq	.+28     	; 0x1454 <write_text+0x3c>
void write_text(u8 y_pos, u8 x_pos, const char* str_ptr)
{	u8 wert, str_p = 0;
	
	x_pos += y_pos * 0x20;																					// Position auf LCD berechnen 4x20 Zeichen
	write_lcd_f ('C',x_pos | 0x80);																	// LCD-Cursor auf gewünsschte Adresse setzen = Position auf LCD
	wert = pgm_read_byte(&str_ptr[str_p++]);
    1438:	11 e0       	ldi	r17, 0x01	; 1
    143a:	01 c0       	rjmp	.+2      	; 0x143e <write_text+0x26>
	while(wert != 0)
	{	write_lcd_f ('D',wert);																				// Daten in obige Adresse schreiben
		wert = pgm_read_byte(&str_ptr[str_p++]);
    143c:	18 2f       	mov	r17, r24
	
	x_pos += y_pos * 0x20;																					// Position auf LCD berechnen 4x20 Zeichen
	write_lcd_f ('C',x_pos | 0x80);																	// LCD-Cursor auf gewünsschte Adresse setzen = Position auf LCD
	wert = pgm_read_byte(&str_ptr[str_p++]);
	while(wert != 0)
	{	write_lcd_f ('D',wert);																				// Daten in obige Adresse schreiben
    143e:	84 e4       	ldi	r24, 0x44	; 68
    1440:	0e 94 b8 09 	call	0x1370	; 0x1370 <write_lcd_f>
		wert = pgm_read_byte(&str_ptr[str_p++]);
    1444:	81 e0       	ldi	r24, 0x01	; 1
    1446:	81 0f       	add	r24, r17
    1448:	fe 01       	movw	r30, r28
    144a:	e1 0f       	add	r30, r17
    144c:	f1 1d       	adc	r31, r1
    144e:	64 91       	lpm	r22, Z
{	u8 wert, str_p = 0;
	
	x_pos += y_pos * 0x20;																					// Position auf LCD berechnen 4x20 Zeichen
	write_lcd_f ('C',x_pos | 0x80);																	// LCD-Cursor auf gewünsschte Adresse setzen = Position auf LCD
	wert = pgm_read_byte(&str_ptr[str_p++]);
	while(wert != 0)
    1450:	61 11       	cpse	r22, r1
    1452:	f4 cf       	rjmp	.-24     	; 0x143c <write_text+0x24>
	{	write_lcd_f ('D',wert);																				// Daten in obige Adresse schreiben
		wert = pgm_read_byte(&str_ptr[str_p++]);
	}
}
    1454:	df 91       	pop	r29
    1456:	cf 91       	pop	r28
    1458:	1f 91       	pop	r17
    145a:	08 95       	ret

0000145c <write_text_ram>:
* y_pos:   Zeile-Nummer (0..3)
* x_pos:   Spalte-Nummer (0..19) (Zeichenposition auf Zeile)
* str_ptr: Adresse des zu schreibenden Textes
\**********************************************************************************/
void write_text_ram(u8 y_pos, u8 x_pos, const char* str_ptr)
{	u8 str_p = 0;
    145c:	1f 93       	push	r17
    145e:	cf 93       	push	r28
    1460:	df 93       	push	r29
    1462:	ea 01       	movw	r28, r20
	
	x_pos += y_pos * 0x20;																					// Position auf LCD berechnen 4x20 Zeichen
    1464:	90 e2       	ldi	r25, 0x20	; 32
    1466:	89 9f       	mul	r24, r25
    1468:	60 0d       	add	r22, r0
    146a:	11 24       	eor	r1, r1
	write_lcd_f ('C',x_pos | 0x80);																	// LCD-Cursor auf gewünsschte Adresse setzen = Position auf LCD
    146c:	60 68       	ori	r22, 0x80	; 128
    146e:	83 e4       	ldi	r24, 0x43	; 67
    1470:	0e 94 b8 09 	call	0x1370	; 0x1370 <write_lcd_f>
	while (str_ptr[str_p]) write_lcd_f ('D',str_ptr[str_p++]);			// Daten in obige Adresse schreiben
    1474:	68 81       	ld	r22, Y
    1476:	66 23       	and	r22, r22
    1478:	59 f0       	breq	.+22     	; 0x1490 <write_text_ram+0x34>
* y_pos:   Zeile-Nummer (0..3)
* x_pos:   Spalte-Nummer (0..19) (Zeichenposition auf Zeile)
* str_ptr: Adresse des zu schreibenden Textes
\**********************************************************************************/
void write_text_ram(u8 y_pos, u8 x_pos, const char* str_ptr)
{	u8 str_p = 0;
    147a:	10 e0       	ldi	r17, 0x00	; 0
	
	x_pos += y_pos * 0x20;																					// Position auf LCD berechnen 4x20 Zeichen
	write_lcd_f ('C',x_pos | 0x80);																	// LCD-Cursor auf gewünsschte Adresse setzen = Position auf LCD
	while (str_ptr[str_p]) write_lcd_f ('D',str_ptr[str_p++]);			// Daten in obige Adresse schreiben
    147c:	1f 5f       	subi	r17, 0xFF	; 255
    147e:	84 e4       	ldi	r24, 0x44	; 68
    1480:	0e 94 b8 09 	call	0x1370	; 0x1370 <write_lcd_f>
    1484:	fe 01       	movw	r30, r28
    1486:	e1 0f       	add	r30, r17
    1488:	f1 1d       	adc	r31, r1
    148a:	60 81       	ld	r22, Z
    148c:	61 11       	cpse	r22, r1
    148e:	f6 cf       	rjmp	.-20     	; 0x147c <write_text_ram+0x20>
}
    1490:	df 91       	pop	r29
    1492:	cf 91       	pop	r28
    1494:	1f 91       	pop	r17
    1496:	08 95       	ret

00001498 <lcd_init>:
*
* Initialisierung des integrierten LCD-Displays
\**********************************************************************************/

void lcd_init(void)
{	u8 i;
    1498:	cf 93       	push	r28
	
	DDRC |= 0x01;													// Port PC0 auf Output setzen LCD-Outputs SOD
    149a:	38 9a       	sbi	0x07, 0	; 7
	DDRC |= 0x02;													// Port PC1 auf Output setzen LCD-Outputs SCLK
    149c:	39 9a       	sbi	0x07, 1	; 7
    149e:	c2 e3       	ldi	r28, 0x32	; 50

	for(i=0; i<50; i++) delay_nop(120);   // 10ms (50x 0.2us) warten, bis LCD gestartet ist (Power-Up)
    14a0:	88 e7       	ldi	r24, 0x78	; 120
    14a2:	0e 94 a3 09 	call	0x1346	; 0x1346 <delay_nop>
    14a6:	c1 50       	subi	r28, 0x01	; 1
    14a8:	d9 f7       	brne	.-10     	; 0x14a0 <lcd_init+0x8>
	
	write_lcd_f('C',0x34);								// set 8-Bit-Interface RE = 1
    14aa:	64 e3       	ldi	r22, 0x34	; 52
    14ac:	83 e4       	ldi	r24, 0x43	; 67
    14ae:	0e 94 b8 09 	call	0x1370	; 0x1370 <write_lcd_f>
	write_lcd_f('C',0x34);								// Nochmals, denn einige LCD starten sonst nicht korrekt.
    14b2:	64 e3       	ldi	r22, 0x34	; 52
    14b4:	83 e4       	ldi	r24, 0x43	; 67
    14b6:	0e 94 b8 09 	call	0x1370	; 0x1370 <write_lcd_f>
	write_lcd_f('C',0x09);								// 4-Zeilen-Modus, 5-Dot Font-Breite
    14ba:	69 e0       	ldi	r22, 0x09	; 9
    14bc:	83 e4       	ldi	r24, 0x43	; 67
    14be:	0e 94 b8 09 	call	0x1370	; 0x1370 <write_lcd_f>
	write_lcd_f('C',0x30);								// set 8-Bit-Interface RE = 0
    14c2:	60 e3       	ldi	r22, 0x30	; 48
    14c4:	83 e4       	ldi	r24, 0x43	; 67
    14c6:	0e 94 b8 09 	call	0x1370	; 0x1370 <write_lcd_f>
	write_lcd_f('C',0x0C);								// Display ON, Cursor OFF
    14ca:	6c e0       	ldi	r22, 0x0C	; 12
    14cc:	83 e4       	ldi	r24, 0x43	; 67
    14ce:	0e 94 b8 09 	call	0x1370	; 0x1370 <write_lcd_f>
	write_lcd_f('C',0x01);								// Clear Display
    14d2:	61 e0       	ldi	r22, 0x01	; 1
    14d4:	83 e4       	ldi	r24, 0x43	; 67
    14d6:	0e 94 b8 09 	call	0x1370	; 0x1370 <write_lcd_f>
    14da:	c8 e0       	ldi	r28, 0x08	; 8
	for(i=0; i<8; i++) delay_nop(120);		// 1.6ms (8x 0.2us) warten, bis LCD gelöscht ist 
    14dc:	88 e7       	ldi	r24, 0x78	; 120
    14de:	0e 94 a3 09 	call	0x1346	; 0x1346 <delay_nop>
    14e2:	c1 50       	subi	r28, 0x01	; 1
    14e4:	d9 f7       	brne	.-10     	; 0x14dc <lcd_init+0x44>
	
	write_lcd_f('C',0x07);								// Entry Mode
    14e6:	67 e0       	ldi	r22, 0x07	; 7
    14e8:	83 e4       	ldi	r24, 0x43	; 67
    14ea:	0e 94 b8 09 	call	0x1370	; 0x1370 <write_lcd_f>
	init_Timer0_1ms_int(); //Timer0 initialisierung 1ms interrupt
}
    14ee:	cf 91       	pop	r28
	write_lcd_f('C',0x0C);								// Display ON, Cursor OFF
	write_lcd_f('C',0x01);								// Clear Display
	for(i=0; i<8; i++) delay_nop(120);		// 1.6ms (8x 0.2us) warten, bis LCD gelöscht ist 
	
	write_lcd_f('C',0x07);								// Entry Mode
	init_Timer0_1ms_int(); //Timer0 initialisierung 1ms interrupt
    14f0:	0c 94 b2 08 	jmp	0x1164	; 0x1164 <init_Timer0_1ms_int>

000014f4 <clear_lcd>:
*
* Löscht die Anzeige auf dem LCD-Display
\**********************************************************************************/

void clear_lcd(void)
{ u8 i;
    14f4:	cf 93       	push	r28
	write_lcd_f('C',0x01);      //Clear Display
    14f6:	61 e0       	ldi	r22, 0x01	; 1
    14f8:	83 e4       	ldi	r24, 0x43	; 67
    14fa:	0e 94 b8 09 	call	0x1370	; 0x1370 <write_lcd_f>
    14fe:	c8 e0       	ldi	r28, 0x08	; 8
	for(i=0; i<8; i++) delay_nop(120);		// 1.6ms (8x 0.2us) warten, bis LCD gelöscht ist 
    1500:	88 e7       	ldi	r24, 0x78	; 120
    1502:	0e 94 a3 09 	call	0x1346	; 0x1346 <delay_nop>
    1506:	c1 50       	subi	r28, 0x01	; 1
    1508:	d9 f7       	brne	.-10     	; 0x1500 <clear_lcd+0xc>
}
    150a:	cf 91       	pop	r28
    150c:	08 95       	ret

0000150e <LED_Show>:
													// Definition mit "PROGMEM", Lesen mit "pgm_read_byte, pgm_read_ptr"
																		
#pragma GCC optimize 0								// Optimierung ausschalten, damit das Debugging möglich ist

void LED_Show(void)
{
    150e:	cf 93       	push	r28
    1510:	df 93       	push	r29
    1512:	1f 92       	push	r1
    1514:	cd b7       	in	r28, 0x3d	; 61
    1516:	de b7       	in	r29, 0x3e	; 62
	u8 i;
	
	PORTB=0x01;
    1518:	85 e2       	ldi	r24, 0x25	; 37
    151a:	90 e0       	ldi	r25, 0x00	; 0
    151c:	21 e0       	ldi	r18, 0x01	; 1
    151e:	fc 01       	movw	r30, r24
    1520:	20 83       	st	Z, r18
	for(i=0;i<8;i++)
    1522:	19 82       	std	Y+1, r1	; 0x01
    1524:	18 c0       	rjmp	.+48     	; 0x1556 <LED_Show+0x48>
	{
		wait_1ms(50);
    1526:	62 e3       	ldi	r22, 0x32	; 50
    1528:	70 e0       	ldi	r23, 0x00	; 0
    152a:	80 e0       	ldi	r24, 0x00	; 0
    152c:	90 e0       	ldi	r25, 0x00	; 0
    152e:	0e 94 64 09 	call	0x12c8	; 0x12c8 <wait_1ms>
		PORTB=0x01<<i;
    1532:	85 e2       	ldi	r24, 0x25	; 37
    1534:	90 e0       	ldi	r25, 0x00	; 0
    1536:	29 81       	ldd	r18, Y+1	; 0x01
    1538:	42 2f       	mov	r20, r18
    153a:	50 e0       	ldi	r21, 0x00	; 0
    153c:	21 e0       	ldi	r18, 0x01	; 1
    153e:	30 e0       	ldi	r19, 0x00	; 0
    1540:	04 2e       	mov	r0, r20
    1542:	02 c0       	rjmp	.+4      	; 0x1548 <LED_Show+0x3a>
    1544:	22 0f       	add	r18, r18
    1546:	33 1f       	adc	r19, r19
    1548:	0a 94       	dec	r0
    154a:	e2 f7       	brpl	.-8      	; 0x1544 <LED_Show+0x36>
    154c:	fc 01       	movw	r30, r24
    154e:	20 83       	st	Z, r18
void LED_Show(void)
{
	u8 i;
	
	PORTB=0x01;
	for(i=0;i<8;i++)
    1550:	89 81       	ldd	r24, Y+1	; 0x01
    1552:	8f 5f       	subi	r24, 0xFF	; 255
    1554:	89 83       	std	Y+1, r24	; 0x01
    1556:	89 81       	ldd	r24, Y+1	; 0x01
    1558:	88 30       	cpi	r24, 0x08	; 8
    155a:	28 f3       	brcs	.-54     	; 0x1526 <LED_Show+0x18>
	{
		wait_1ms(50);
		PORTB=0x01<<i;
	}
	PORTB=0x80;
    155c:	85 e2       	ldi	r24, 0x25	; 37
    155e:	90 e0       	ldi	r25, 0x00	; 0
    1560:	20 e8       	ldi	r18, 0x80	; 128
    1562:	fc 01       	movw	r30, r24
    1564:	20 83       	st	Z, r18
	for(i=0;i<8;i++)
    1566:	19 82       	std	Y+1, r1	; 0x01
    1568:	18 c0       	rjmp	.+48     	; 0x159a <LED_Show+0x8c>
	{
		wait_1ms(50);
    156a:	62 e3       	ldi	r22, 0x32	; 50
    156c:	70 e0       	ldi	r23, 0x00	; 0
    156e:	80 e0       	ldi	r24, 0x00	; 0
    1570:	90 e0       	ldi	r25, 0x00	; 0
    1572:	0e 94 64 09 	call	0x12c8	; 0x12c8 <wait_1ms>
		PORTB=0x80>>i;
    1576:	85 e2       	ldi	r24, 0x25	; 37
    1578:	90 e0       	ldi	r25, 0x00	; 0
    157a:	29 81       	ldd	r18, Y+1	; 0x01
    157c:	42 2f       	mov	r20, r18
    157e:	50 e0       	ldi	r21, 0x00	; 0
    1580:	20 e8       	ldi	r18, 0x80	; 128
    1582:	30 e0       	ldi	r19, 0x00	; 0
    1584:	04 2e       	mov	r0, r20
    1586:	02 c0       	rjmp	.+4      	; 0x158c <LED_Show+0x7e>
    1588:	35 95       	asr	r19
    158a:	27 95       	ror	r18
    158c:	0a 94       	dec	r0
    158e:	e2 f7       	brpl	.-8      	; 0x1588 <LED_Show+0x7a>
    1590:	fc 01       	movw	r30, r24
    1592:	20 83       	st	Z, r18
	{
		wait_1ms(50);
		PORTB=0x01<<i;
	}
	PORTB=0x80;
	for(i=0;i<8;i++)
    1594:	89 81       	ldd	r24, Y+1	; 0x01
    1596:	8f 5f       	subi	r24, 0xFF	; 255
    1598:	89 83       	std	Y+1, r24	; 0x01
    159a:	89 81       	ldd	r24, Y+1	; 0x01
    159c:	88 30       	cpi	r24, 0x08	; 8
    159e:	28 f3       	brcs	.-54     	; 0x156a <LED_Show+0x5c>
	{
		wait_1ms(50);
		PORTB=0x80>>i;
	}
	wait_1ms(100);
    15a0:	64 e6       	ldi	r22, 0x64	; 100
    15a2:	70 e0       	ldi	r23, 0x00	; 0
    15a4:	80 e0       	ldi	r24, 0x00	; 0
    15a6:	90 e0       	ldi	r25, 0x00	; 0
    15a8:	0e 94 64 09 	call	0x12c8	; 0x12c8 <wait_1ms>
	PORTB=0x00;	
    15ac:	85 e2       	ldi	r24, 0x25	; 37
    15ae:	90 e0       	ldi	r25, 0x00	; 0
    15b0:	fc 01       	movw	r30, r24
    15b2:	10 82       	st	Z, r1
}
    15b4:	0f 90       	pop	r0
    15b6:	df 91       	pop	r29
    15b8:	cf 91       	pop	r28
    15ba:	08 95       	ret

000015bc <init_BT_CAR_V2_0>:

void init_BT_CAR_V2_0(void)
{
    15bc:	cf 93       	push	r28
    15be:	df 93       	push	r29
    15c0:	cd b7       	in	r28, 0x3d	; 61
    15c2:	de b7       	in	r29, 0x3e	; 62
	// Initialisierung PortA
	DDRA  = 0x60;			// Eingang PA0..PA4 as Input (analog Signals), PA5 and PA6 as Output and PA7 as Input (SRG Ansteuerung)
    15c4:	81 e2       	ldi	r24, 0x21	; 33
    15c6:	90 e0       	ldi	r25, 0x00	; 0
    15c8:	20 e6       	ldi	r18, 0x60	; 96
    15ca:	fc 01       	movw	r30, r24
    15cc:	20 83       	st	Z, r18

	//Initialisierung Port B
	DDRB  =  0xFF;			// LED Port, alles Outputs, ACHTUNG PB.0...PB.3 sind auch Taster am LCD Display
    15ce:	84 e2       	ldi	r24, 0x24	; 36
    15d0:	90 e0       	ldi	r25, 0x00	; 0
    15d2:	2f ef       	ldi	r18, 0xFF	; 255
    15d4:	fc 01       	movw	r30, r24
    15d6:	20 83       	st	Z, r18
	//PC0, PC1 im LCD Driver definiert
	//PC2...PC5 für JTAG Schnittstelle
	//PC6, PC7 32.678 KHz Quarz 

	//Initialisierung PortD
	DDRD  =  0xFC;			// PD7,PD6,PD5,PD4 als Outputs (PWM), PD3 Output (Enable HB), PD2 Output (Summer)
    15d8:	8a e2       	ldi	r24, 0x2A	; 42
    15da:	90 e0       	ldi	r25, 0x00	; 0
    15dc:	2c ef       	ldi	r18, 0xFC	; 252
    15de:	fc 01       	movw	r30, r24
    15e0:	20 83       	st	Z, r18
							// PD1 und PD0 sind TxD und RxD von UART0 werden über RXEN und TXEN aktiviert
							
	sei(); 					// Global Interrupts aktivieren	
    15e2:	78 94       	sei
	lcd_init();				// Das LCD muss ebenfalls initialisiert werden, um später genutz werden zu können
    15e4:	0e 94 4c 0a 	call	0x1498	; 0x1498 <lcd_init>
	clear_lcd();
    15e8:	0e 94 7a 0a 	call	0x14f4	; 0x14f4 <clear_lcd>
	//write_text(0, 0,PSTR("LCD init ok"));
	LED_Show();							
    15ec:	0e 94 87 0a 	call	0x150e	; 0x150e <LED_Show>
}
    15f0:	df 91       	pop	r29
    15f2:	cf 91       	pop	r28
    15f4:	08 95       	ret

000015f6 <__fixsfsi>:
    15f6:	04 d0       	rcall	.+8      	; 0x1600 <__fixunssfsi>
    15f8:	68 94       	set
    15fa:	b1 11       	cpse	r27, r1
    15fc:	50 c0       	rjmp	.+160    	; 0x169e <__fp_szero>
    15fe:	08 95       	ret

00001600 <__fixunssfsi>:
    1600:	33 d0       	rcall	.+102    	; 0x1668 <__fp_splitA>
    1602:	88 f0       	brcs	.+34     	; 0x1626 <__fixunssfsi+0x26>
    1604:	9f 57       	subi	r25, 0x7F	; 127
    1606:	90 f0       	brcs	.+36     	; 0x162c <__fixunssfsi+0x2c>
    1608:	b9 2f       	mov	r27, r25
    160a:	99 27       	eor	r25, r25
    160c:	b7 51       	subi	r27, 0x17	; 23
    160e:	a0 f0       	brcs	.+40     	; 0x1638 <__fixunssfsi+0x38>
    1610:	d1 f0       	breq	.+52     	; 0x1646 <__fixunssfsi+0x46>
    1612:	66 0f       	add	r22, r22
    1614:	77 1f       	adc	r23, r23
    1616:	88 1f       	adc	r24, r24
    1618:	99 1f       	adc	r25, r25
    161a:	1a f0       	brmi	.+6      	; 0x1622 <__fixunssfsi+0x22>
    161c:	ba 95       	dec	r27
    161e:	c9 f7       	brne	.-14     	; 0x1612 <__fixunssfsi+0x12>
    1620:	12 c0       	rjmp	.+36     	; 0x1646 <__fixunssfsi+0x46>
    1622:	b1 30       	cpi	r27, 0x01	; 1
    1624:	81 f0       	breq	.+32     	; 0x1646 <__fixunssfsi+0x46>
    1626:	3a d0       	rcall	.+116    	; 0x169c <__fp_zero>
    1628:	b1 e0       	ldi	r27, 0x01	; 1
    162a:	08 95       	ret
    162c:	37 c0       	rjmp	.+110    	; 0x169c <__fp_zero>
    162e:	67 2f       	mov	r22, r23
    1630:	78 2f       	mov	r23, r24
    1632:	88 27       	eor	r24, r24
    1634:	b8 5f       	subi	r27, 0xF8	; 248
    1636:	39 f0       	breq	.+14     	; 0x1646 <__fixunssfsi+0x46>
    1638:	b9 3f       	cpi	r27, 0xF9	; 249
    163a:	cc f3       	brlt	.-14     	; 0x162e <__fixunssfsi+0x2e>
    163c:	86 95       	lsr	r24
    163e:	77 95       	ror	r23
    1640:	67 95       	ror	r22
    1642:	b3 95       	inc	r27
    1644:	d9 f7       	brne	.-10     	; 0x163c <__fixunssfsi+0x3c>
    1646:	3e f4       	brtc	.+14     	; 0x1656 <__fixunssfsi+0x56>
    1648:	90 95       	com	r25
    164a:	80 95       	com	r24
    164c:	70 95       	com	r23
    164e:	61 95       	neg	r22
    1650:	7f 4f       	sbci	r23, 0xFF	; 255
    1652:	8f 4f       	sbci	r24, 0xFF	; 255
    1654:	9f 4f       	sbci	r25, 0xFF	; 255
    1656:	08 95       	ret

00001658 <__fp_split3>:
    1658:	57 fd       	sbrc	r21, 7
    165a:	90 58       	subi	r25, 0x80	; 128
    165c:	44 0f       	add	r20, r20
    165e:	55 1f       	adc	r21, r21
    1660:	59 f0       	breq	.+22     	; 0x1678 <__fp_splitA+0x10>
    1662:	5f 3f       	cpi	r21, 0xFF	; 255
    1664:	71 f0       	breq	.+28     	; 0x1682 <__fp_splitA+0x1a>
    1666:	47 95       	ror	r20

00001668 <__fp_splitA>:
    1668:	88 0f       	add	r24, r24
    166a:	97 fb       	bst	r25, 7
    166c:	99 1f       	adc	r25, r25
    166e:	61 f0       	breq	.+24     	; 0x1688 <__fp_splitA+0x20>
    1670:	9f 3f       	cpi	r25, 0xFF	; 255
    1672:	79 f0       	breq	.+30     	; 0x1692 <__fp_splitA+0x2a>
    1674:	87 95       	ror	r24
    1676:	08 95       	ret
    1678:	12 16       	cp	r1, r18
    167a:	13 06       	cpc	r1, r19
    167c:	14 06       	cpc	r1, r20
    167e:	55 1f       	adc	r21, r21
    1680:	f2 cf       	rjmp	.-28     	; 0x1666 <__fp_split3+0xe>
    1682:	46 95       	lsr	r20
    1684:	f1 df       	rcall	.-30     	; 0x1668 <__fp_splitA>
    1686:	08 c0       	rjmp	.+16     	; 0x1698 <__fp_splitA+0x30>
    1688:	16 16       	cp	r1, r22
    168a:	17 06       	cpc	r1, r23
    168c:	18 06       	cpc	r1, r24
    168e:	99 1f       	adc	r25, r25
    1690:	f1 cf       	rjmp	.-30     	; 0x1674 <__fp_splitA+0xc>
    1692:	86 95       	lsr	r24
    1694:	71 05       	cpc	r23, r1
    1696:	61 05       	cpc	r22, r1
    1698:	08 94       	sec
    169a:	08 95       	ret

0000169c <__fp_zero>:
    169c:	e8 94       	clt

0000169e <__fp_szero>:
    169e:	bb 27       	eor	r27, r27
    16a0:	66 27       	eor	r22, r22
    16a2:	77 27       	eor	r23, r23
    16a4:	cb 01       	movw	r24, r22
    16a6:	97 f9       	bld	r25, 7
    16a8:	08 95       	ret

000016aa <__udivmodsi4>:
    16aa:	a1 e2       	ldi	r26, 0x21	; 33
    16ac:	1a 2e       	mov	r1, r26
    16ae:	aa 1b       	sub	r26, r26
    16b0:	bb 1b       	sub	r27, r27
    16b2:	fd 01       	movw	r30, r26
    16b4:	0d c0       	rjmp	.+26     	; 0x16d0 <__udivmodsi4_ep>

000016b6 <__udivmodsi4_loop>:
    16b6:	aa 1f       	adc	r26, r26
    16b8:	bb 1f       	adc	r27, r27
    16ba:	ee 1f       	adc	r30, r30
    16bc:	ff 1f       	adc	r31, r31
    16be:	a2 17       	cp	r26, r18
    16c0:	b3 07       	cpc	r27, r19
    16c2:	e4 07       	cpc	r30, r20
    16c4:	f5 07       	cpc	r31, r21
    16c6:	20 f0       	brcs	.+8      	; 0x16d0 <__udivmodsi4_ep>
    16c8:	a2 1b       	sub	r26, r18
    16ca:	b3 0b       	sbc	r27, r19
    16cc:	e4 0b       	sbc	r30, r20
    16ce:	f5 0b       	sbc	r31, r21

000016d0 <__udivmodsi4_ep>:
    16d0:	66 1f       	adc	r22, r22
    16d2:	77 1f       	adc	r23, r23
    16d4:	88 1f       	adc	r24, r24
    16d6:	99 1f       	adc	r25, r25
    16d8:	1a 94       	dec	r1
    16da:	69 f7       	brne	.-38     	; 0x16b6 <__udivmodsi4_loop>
    16dc:	60 95       	com	r22
    16de:	70 95       	com	r23
    16e0:	80 95       	com	r24
    16e2:	90 95       	com	r25
    16e4:	9b 01       	movw	r18, r22
    16e6:	ac 01       	movw	r20, r24
    16e8:	bd 01       	movw	r22, r26
    16ea:	cf 01       	movw	r24, r30
    16ec:	08 95       	ret

000016ee <__umulhisi3>:
    16ee:	a2 9f       	mul	r26, r18
    16f0:	b0 01       	movw	r22, r0
    16f2:	b3 9f       	mul	r27, r19
    16f4:	c0 01       	movw	r24, r0
    16f6:	a3 9f       	mul	r26, r19
    16f8:	70 0d       	add	r23, r0
    16fa:	81 1d       	adc	r24, r1
    16fc:	11 24       	eor	r1, r1
    16fe:	91 1d       	adc	r25, r1
    1700:	b2 9f       	mul	r27, r18
    1702:	70 0d       	add	r23, r0
    1704:	81 1d       	adc	r24, r1
    1706:	11 24       	eor	r1, r1
    1708:	91 1d       	adc	r25, r1
    170a:	08 95       	ret

0000170c <atof>:
    170c:	66 27       	eor	r22, r22
    170e:	77 27       	eor	r23, r23
    1710:	0c 94 f1 0b 	jmp	0x17e2	; 0x17e2 <strtod>

00001714 <strtok>:
    1714:	4e eb       	ldi	r20, 0xBE	; 190
    1716:	55 e0       	ldi	r21, 0x05	; 5
    1718:	0e 94 9a 0b 	call	0x1734	; 0x1734 <strtok_r>
    171c:	08 95       	ret

0000171e <strcat>:
    171e:	fb 01       	movw	r30, r22
    1720:	dc 01       	movw	r26, r24
    1722:	0d 90       	ld	r0, X+
    1724:	00 20       	and	r0, r0
    1726:	e9 f7       	brne	.-6      	; 0x1722 <strcat+0x4>
    1728:	11 97       	sbiw	r26, 0x01	; 1
    172a:	01 90       	ld	r0, Z+
    172c:	0d 92       	st	X+, r0
    172e:	00 20       	and	r0, r0
    1730:	e1 f7       	brne	.-8      	; 0x172a <strcat+0xc>
    1732:	08 95       	ret

00001734 <strtok_r>:
    1734:	fa 01       	movw	r30, r20
    1736:	a1 91       	ld	r26, Z+
    1738:	b0 81       	ld	r27, Z
    173a:	00 97       	sbiw	r24, 0x00	; 0
    173c:	19 f4       	brne	.+6      	; 0x1744 <strtok_r+0x10>
    173e:	10 97       	sbiw	r26, 0x00	; 0
    1740:	e1 f0       	breq	.+56     	; 0x177a <strtok_r+0x46>
    1742:	cd 01       	movw	r24, r26
    1744:	dc 01       	movw	r26, r24
    1746:	cd 01       	movw	r24, r26
    1748:	0d 90       	ld	r0, X+
    174a:	00 20       	and	r0, r0
    174c:	11 f4       	brne	.+4      	; 0x1752 <strtok_r+0x1e>
    174e:	c0 01       	movw	r24, r0
    1750:	13 c0       	rjmp	.+38     	; 0x1778 <strtok_r+0x44>
    1752:	fb 01       	movw	r30, r22
    1754:	21 91       	ld	r18, Z+
    1756:	22 23       	and	r18, r18
    1758:	19 f0       	breq	.+6      	; 0x1760 <strtok_r+0x2c>
    175a:	20 15       	cp	r18, r0
    175c:	d9 f7       	brne	.-10     	; 0x1754 <strtok_r+0x20>
    175e:	f3 cf       	rjmp	.-26     	; 0x1746 <strtok_r+0x12>
    1760:	fb 01       	movw	r30, r22
    1762:	21 91       	ld	r18, Z+
    1764:	20 15       	cp	r18, r0
    1766:	19 f4       	brne	.+6      	; 0x176e <strtok_r+0x3a>
    1768:	1e 92       	st	-X, r1
    176a:	11 96       	adiw	r26, 0x01	; 1
    176c:	06 c0       	rjmp	.+12     	; 0x177a <strtok_r+0x46>
    176e:	22 23       	and	r18, r18
    1770:	c1 f7       	brne	.-16     	; 0x1762 <strtok_r+0x2e>
    1772:	0d 90       	ld	r0, X+
    1774:	00 20       	and	r0, r0
    1776:	a1 f7       	brne	.-24     	; 0x1760 <strtok_r+0x2c>
    1778:	d0 01       	movw	r26, r0
    177a:	fa 01       	movw	r30, r20
    177c:	a1 93       	st	Z+, r26
    177e:	b0 83       	st	Z, r27
    1780:	08 95       	ret

00001782 <itoa>:
    1782:	45 32       	cpi	r20, 0x25	; 37
    1784:	51 05       	cpc	r21, r1
    1786:	20 f4       	brcc	.+8      	; 0x1790 <itoa+0xe>
    1788:	42 30       	cpi	r20, 0x02	; 2
    178a:	10 f0       	brcs	.+4      	; 0x1790 <itoa+0xe>
    178c:	0c 94 cc 0b 	jmp	0x1798	; 0x1798 <__itoa_ncheck>
    1790:	fb 01       	movw	r30, r22
    1792:	10 82       	st	Z, r1
    1794:	cb 01       	movw	r24, r22
    1796:	08 95       	ret

00001798 <__itoa_ncheck>:
    1798:	bb 27       	eor	r27, r27
    179a:	4a 30       	cpi	r20, 0x0A	; 10
    179c:	31 f4       	brne	.+12     	; 0x17aa <__itoa_ncheck+0x12>
    179e:	99 23       	and	r25, r25
    17a0:	22 f4       	brpl	.+8      	; 0x17aa <__itoa_ncheck+0x12>
    17a2:	bd e2       	ldi	r27, 0x2D	; 45
    17a4:	90 95       	com	r25
    17a6:	81 95       	neg	r24
    17a8:	9f 4f       	sbci	r25, 0xFF	; 255
    17aa:	0c 94 d8 0b 	jmp	0x17b0	; 0x17b0 <__utoa_common>

000017ae <__utoa_ncheck>:
    17ae:	bb 27       	eor	r27, r27

000017b0 <__utoa_common>:
    17b0:	fb 01       	movw	r30, r22
    17b2:	55 27       	eor	r21, r21
    17b4:	aa 27       	eor	r26, r26
    17b6:	88 0f       	add	r24, r24
    17b8:	99 1f       	adc	r25, r25
    17ba:	aa 1f       	adc	r26, r26
    17bc:	a4 17       	cp	r26, r20
    17be:	10 f0       	brcs	.+4      	; 0x17c4 <__utoa_common+0x14>
    17c0:	a4 1b       	sub	r26, r20
    17c2:	83 95       	inc	r24
    17c4:	50 51       	subi	r21, 0x10	; 16
    17c6:	b9 f7       	brne	.-18     	; 0x17b6 <__utoa_common+0x6>
    17c8:	a0 5d       	subi	r26, 0xD0	; 208
    17ca:	aa 33       	cpi	r26, 0x3A	; 58
    17cc:	08 f0       	brcs	.+2      	; 0x17d0 <__utoa_common+0x20>
    17ce:	a9 5d       	subi	r26, 0xD9	; 217
    17d0:	a1 93       	st	Z+, r26
    17d2:	00 97       	sbiw	r24, 0x00	; 0
    17d4:	79 f7       	brne	.-34     	; 0x17b4 <__utoa_common+0x4>
    17d6:	b1 11       	cpse	r27, r1
    17d8:	b1 93       	st	Z+, r27
    17da:	11 92       	st	Z+, r1
    17dc:	cb 01       	movw	r24, r22
    17de:	0c 94 74 0d 	jmp	0x1ae8	; 0x1ae8 <strrev>

000017e2 <strtod>:
    17e2:	a0 e0       	ldi	r26, 0x00	; 0
    17e4:	b0 e0       	ldi	r27, 0x00	; 0
    17e6:	e7 ef       	ldi	r30, 0xF7	; 247
    17e8:	fb e0       	ldi	r31, 0x0B	; 11
    17ea:	0c 94 88 0e 	jmp	0x1d10	; 0x1d10 <__prologue_saves__+0xc>
    17ee:	8b 01       	movw	r16, r22
    17f0:	61 15       	cp	r22, r1
    17f2:	71 05       	cpc	r23, r1
    17f4:	21 f0       	breq	.+8      	; 0x17fe <strtod+0x1c>
    17f6:	db 01       	movw	r26, r22
    17f8:	8c 93       	st	X, r24
    17fa:	11 96       	adiw	r26, 0x01	; 1
    17fc:	9c 93       	st	X, r25
    17fe:	ec 01       	movw	r28, r24
    1800:	5e 01       	movw	r10, r28
    1802:	bf ef       	ldi	r27, 0xFF	; 255
    1804:	ab 1a       	sub	r10, r27
    1806:	bb 0a       	sbc	r11, r27
    1808:	75 01       	movw	r14, r10
    180a:	c8 80       	ld	r12, Y
    180c:	8c 2d       	mov	r24, r12
    180e:	90 e0       	ldi	r25, 0x00	; 0
    1810:	0e 94 54 0d 	call	0x1aa8	; 0x1aa8 <isspace>
    1814:	89 2b       	or	r24, r25
    1816:	11 f0       	breq	.+4      	; 0x181c <strtod+0x3a>
    1818:	e5 01       	movw	r28, r10
    181a:	f2 cf       	rjmp	.-28     	; 0x1800 <strtod+0x1e>
    181c:	ed e2       	ldi	r30, 0x2D	; 45
    181e:	ce 12       	cpse	r12, r30
    1820:	08 c0       	rjmp	.+16     	; 0x1832 <strtod+0x50>
    1822:	7e 01       	movw	r14, r28
    1824:	f2 e0       	ldi	r31, 0x02	; 2
    1826:	ef 0e       	add	r14, r31
    1828:	f1 1c       	adc	r15, r1
    182a:	c9 80       	ldd	r12, Y+1	; 0x01
    182c:	dd 24       	eor	r13, r13
    182e:	d3 94       	inc	r13
    1830:	09 c0       	rjmp	.+18     	; 0x1844 <strtod+0x62>
    1832:	2b e2       	ldi	r18, 0x2B	; 43
    1834:	c2 12       	cpse	r12, r18
    1836:	05 c0       	rjmp	.+10     	; 0x1842 <strtod+0x60>
    1838:	7e 01       	movw	r14, r28
    183a:	42 e0       	ldi	r20, 0x02	; 2
    183c:	e4 0e       	add	r14, r20
    183e:	f1 1c       	adc	r15, r1
    1840:	c9 80       	ldd	r12, Y+1	; 0x01
    1842:	d1 2c       	mov	r13, r1
    1844:	e7 01       	movw	r28, r14
    1846:	21 97       	sbiw	r28, 0x01	; 1
    1848:	43 e0       	ldi	r20, 0x03	; 3
    184a:	50 e0       	ldi	r21, 0x00	; 0
    184c:	61 e9       	ldi	r22, 0x91	; 145
    184e:	70 e0       	ldi	r23, 0x00	; 0
    1850:	ce 01       	movw	r24, r28
    1852:	0e 94 5c 0d 	call	0x1ab8	; 0x1ab8 <strncasecmp_P>
    1856:	89 2b       	or	r24, r25
    1858:	c1 f4       	brne	.+48     	; 0x188a <strtod+0xa8>
    185a:	23 96       	adiw	r28, 0x03	; 3
    185c:	45 e0       	ldi	r20, 0x05	; 5
    185e:	50 e0       	ldi	r21, 0x00	; 0
    1860:	6c e8       	ldi	r22, 0x8C	; 140
    1862:	70 e0       	ldi	r23, 0x00	; 0
    1864:	ce 01       	movw	r24, r28
    1866:	0e 94 5c 0d 	call	0x1ab8	; 0x1ab8 <strncasecmp_P>
    186a:	89 2b       	or	r24, r25
    186c:	09 f4       	brne	.+2      	; 0x1870 <strtod+0x8e>
    186e:	25 96       	adiw	r28, 0x05	; 5
    1870:	01 15       	cp	r16, r1
    1872:	11 05       	cpc	r17, r1
    1874:	19 f0       	breq	.+6      	; 0x187c <strtod+0x9a>
    1876:	d8 01       	movw	r26, r16
    1878:	cd 93       	st	X+, r28
    187a:	dc 93       	st	X, r29
    187c:	d1 10       	cpse	r13, r1
    187e:	06 c1       	rjmp	.+524    	; 0x1a8c <strtod+0x2aa>
    1880:	60 e0       	ldi	r22, 0x00	; 0
    1882:	70 e0       	ldi	r23, 0x00	; 0
    1884:	80 e8       	ldi	r24, 0x80	; 128
    1886:	9f e7       	ldi	r25, 0x7F	; 127
    1888:	0a c1       	rjmp	.+532    	; 0x1a9e <strtod+0x2bc>
    188a:	43 e0       	ldi	r20, 0x03	; 3
    188c:	50 e0       	ldi	r21, 0x00	; 0
    188e:	69 e8       	ldi	r22, 0x89	; 137
    1890:	70 e0       	ldi	r23, 0x00	; 0
    1892:	ce 01       	movw	r24, r28
    1894:	0e 94 5c 0d 	call	0x1ab8	; 0x1ab8 <strncasecmp_P>
    1898:	89 2b       	or	r24, r25
    189a:	59 f4       	brne	.+22     	; 0x18b2 <strtod+0xd0>
    189c:	01 15       	cp	r16, r1
    189e:	11 05       	cpc	r17, r1
    18a0:	09 f4       	brne	.+2      	; 0x18a4 <strtod+0xc2>
    18a2:	f9 c0       	rjmp	.+498    	; 0x1a96 <strtod+0x2b4>
    18a4:	b2 e0       	ldi	r27, 0x02	; 2
    18a6:	eb 0e       	add	r14, r27
    18a8:	f1 1c       	adc	r15, r1
    18aa:	f8 01       	movw	r30, r16
    18ac:	f1 82       	std	Z+1, r15	; 0x01
    18ae:	e0 82       	st	Z, r14
    18b0:	f2 c0       	rjmp	.+484    	; 0x1a96 <strtod+0x2b4>
    18b2:	f7 01       	movw	r30, r14
    18b4:	60 e0       	ldi	r22, 0x00	; 0
    18b6:	70 e0       	ldi	r23, 0x00	; 0
    18b8:	cb 01       	movw	r24, r22
    18ba:	c0 e0       	ldi	r28, 0x00	; 0
    18bc:	d0 e0       	ldi	r29, 0x00	; 0
    18be:	7f 01       	movw	r14, r30
    18c0:	a0 ed       	ldi	r26, 0xD0	; 208
    18c2:	aa 2e       	mov	r10, r26
    18c4:	ac 0c       	add	r10, r12
    18c6:	29 e0       	ldi	r18, 0x09	; 9
    18c8:	2a 15       	cp	r18, r10
    18ca:	30 f1       	brcs	.+76     	; 0x1918 <strtod+0x136>
    18cc:	4d 2d       	mov	r20, r13
    18ce:	42 60       	ori	r20, 0x02	; 2
    18d0:	b4 2e       	mov	r11, r20
    18d2:	2d 2d       	mov	r18, r13
    18d4:	28 70       	andi	r18, 0x08	; 8
    18d6:	d2 fe       	sbrs	r13, 2
    18d8:	04 c0       	rjmp	.+8      	; 0x18e2 <strtod+0x100>
    18da:	21 11       	cpse	r18, r1
    18dc:	25 c0       	rjmp	.+74     	; 0x1928 <strtod+0x146>
    18de:	21 96       	adiw	r28, 0x01	; 1
    18e0:	23 c0       	rjmp	.+70     	; 0x1928 <strtod+0x146>
    18e2:	21 11       	cpse	r18, r1
    18e4:	21 97       	sbiw	r28, 0x01	; 1
    18e6:	a5 e0       	ldi	r26, 0x05	; 5
    18e8:	b0 e0       	ldi	r27, 0x00	; 0
    18ea:	9b 01       	movw	r18, r22
    18ec:	ac 01       	movw	r20, r24
    18ee:	0e 94 77 0e 	call	0x1cee	; 0x1cee <__muluhisi3>
    18f2:	66 0f       	add	r22, r22
    18f4:	77 1f       	adc	r23, r23
    18f6:	88 1f       	adc	r24, r24
    18f8:	99 1f       	adc	r25, r25
    18fa:	6a 0d       	add	r22, r10
    18fc:	71 1d       	adc	r23, r1
    18fe:	81 1d       	adc	r24, r1
    1900:	91 1d       	adc	r25, r1
    1902:	68 39       	cpi	r22, 0x98	; 152
    1904:	a9 e9       	ldi	r26, 0x99	; 153
    1906:	7a 07       	cpc	r23, r26
    1908:	8a 07       	cpc	r24, r26
    190a:	a9 e1       	ldi	r26, 0x19	; 25
    190c:	9a 07       	cpc	r25, r26
    190e:	60 f0       	brcs	.+24     	; 0x1928 <strtod+0x146>
    1910:	bd 2d       	mov	r27, r13
    1912:	b6 60       	ori	r27, 0x06	; 6
    1914:	bb 2e       	mov	r11, r27
    1916:	08 c0       	rjmp	.+16     	; 0x1928 <strtod+0x146>
    1918:	2e ef       	ldi	r18, 0xFE	; 254
    191a:	a2 12       	cpse	r10, r18
    191c:	0a c0       	rjmp	.+20     	; 0x1932 <strtod+0x150>
    191e:	d3 fc       	sbrc	r13, 3
    1920:	50 c0       	rjmp	.+160    	; 0x19c2 <strtod+0x1e0>
    1922:	4d 2d       	mov	r20, r13
    1924:	48 60       	ori	r20, 0x08	; 8
    1926:	b4 2e       	mov	r11, r20
    1928:	31 96       	adiw	r30, 0x01	; 1
    192a:	d7 01       	movw	r26, r14
    192c:	cc 90       	ld	r12, X
    192e:	db 2c       	mov	r13, r11
    1930:	c6 cf       	rjmp	.-116    	; 0x18be <strtod+0xdc>
    1932:	2c 2d       	mov	r18, r12
    1934:	2f 7d       	andi	r18, 0xDF	; 223
    1936:	25 34       	cpi	r18, 0x45	; 69
    1938:	09 f0       	breq	.+2      	; 0x193c <strtod+0x15a>
    193a:	43 c0       	rjmp	.+134    	; 0x19c2 <strtod+0x1e0>
    193c:	a0 81       	ld	r26, Z
    193e:	ad 32       	cpi	r26, 0x2D	; 45
    1940:	41 f4       	brne	.+16     	; 0x1952 <strtod+0x170>
    1942:	bd 2d       	mov	r27, r13
    1944:	b0 61       	ori	r27, 0x10	; 16
    1946:	db 2e       	mov	r13, r27
    1948:	7f 01       	movw	r14, r30
    194a:	22 e0       	ldi	r18, 0x02	; 2
    194c:	e2 0e       	add	r14, r18
    194e:	f1 1c       	adc	r15, r1
    1950:	0c c0       	rjmp	.+24     	; 0x196a <strtod+0x188>
    1952:	7f 01       	movw	r14, r30
    1954:	ab 32       	cpi	r26, 0x2B	; 43
    1956:	31 f0       	breq	.+12     	; 0x1964 <strtod+0x182>
    1958:	4f ef       	ldi	r20, 0xFF	; 255
    195a:	e4 1a       	sub	r14, r20
    195c:	f4 0a       	sbc	r15, r20
    195e:	21 e0       	ldi	r18, 0x01	; 1
    1960:	30 e0       	ldi	r19, 0x00	; 0
    1962:	06 c0       	rjmp	.+12     	; 0x1970 <strtod+0x18e>
    1964:	a2 e0       	ldi	r26, 0x02	; 2
    1966:	ea 0e       	add	r14, r26
    1968:	f1 1c       	adc	r15, r1
    196a:	a1 81       	ldd	r26, Z+1	; 0x01
    196c:	22 e0       	ldi	r18, 0x02	; 2
    196e:	30 e0       	ldi	r19, 0x00	; 0
    1970:	a0 53       	subi	r26, 0x30	; 48
    1972:	aa 30       	cpi	r26, 0x0A	; 10
    1974:	18 f0       	brcs	.+6      	; 0x197c <strtod+0x19a>
    1976:	e2 1a       	sub	r14, r18
    1978:	f3 0a       	sbc	r15, r19
    197a:	23 c0       	rjmp	.+70     	; 0x19c2 <strtod+0x1e0>
    197c:	f7 01       	movw	r30, r14
    197e:	20 e0       	ldi	r18, 0x00	; 0
    1980:	30 e0       	ldi	r19, 0x00	; 0
    1982:	20 38       	cpi	r18, 0x80	; 128
    1984:	bc e0       	ldi	r27, 0x0C	; 12
    1986:	3b 07       	cpc	r19, r27
    1988:	5c f4       	brge	.+22     	; 0x19a0 <strtod+0x1be>
    198a:	a9 01       	movw	r20, r18
    198c:	44 0f       	add	r20, r20
    198e:	55 1f       	adc	r21, r21
    1990:	44 0f       	add	r20, r20
    1992:	55 1f       	adc	r21, r21
    1994:	24 0f       	add	r18, r20
    1996:	35 1f       	adc	r19, r21
    1998:	22 0f       	add	r18, r18
    199a:	33 1f       	adc	r19, r19
    199c:	2a 0f       	add	r18, r26
    199e:	31 1d       	adc	r19, r1
    19a0:	af 01       	movw	r20, r30
    19a2:	4f 5f       	subi	r20, 0xFF	; 255
    19a4:	5f 4f       	sbci	r21, 0xFF	; 255
    19a6:	7a 01       	movw	r14, r20
    19a8:	a0 81       	ld	r26, Z
    19aa:	a0 53       	subi	r26, 0x30	; 48
    19ac:	aa 30       	cpi	r26, 0x0A	; 10
    19ae:	10 f4       	brcc	.+4      	; 0x19b4 <strtod+0x1d2>
    19b0:	fa 01       	movw	r30, r20
    19b2:	e7 cf       	rjmp	.-50     	; 0x1982 <strtod+0x1a0>
    19b4:	d4 fe       	sbrs	r13, 4
    19b6:	03 c0       	rjmp	.+6      	; 0x19be <strtod+0x1dc>
    19b8:	31 95       	neg	r19
    19ba:	21 95       	neg	r18
    19bc:	31 09       	sbc	r19, r1
    19be:	c2 0f       	add	r28, r18
    19c0:	d3 1f       	adc	r29, r19
    19c2:	d1 fe       	sbrs	r13, 1
    19c4:	09 c0       	rjmp	.+18     	; 0x19d8 <strtod+0x1f6>
    19c6:	01 15       	cp	r16, r1
    19c8:	11 05       	cpc	r17, r1
    19ca:	31 f0       	breq	.+12     	; 0x19d8 <strtod+0x1f6>
    19cc:	e1 e0       	ldi	r30, 0x01	; 1
    19ce:	ee 1a       	sub	r14, r30
    19d0:	f1 08       	sbc	r15, r1
    19d2:	d8 01       	movw	r26, r16
    19d4:	ed 92       	st	X+, r14
    19d6:	fc 92       	st	X, r15
    19d8:	0e 94 88 0d 	call	0x1b10	; 0x1b10 <__floatunsisf>
    19dc:	2d 2d       	mov	r18, r13
    19de:	23 70       	andi	r18, 0x03	; 3
    19e0:	23 30       	cpi	r18, 0x03	; 3
    19e2:	19 f0       	breq	.+6      	; 0x19ea <strtod+0x208>
    19e4:	4b 01       	movw	r8, r22
    19e6:	5c 01       	movw	r10, r24
    19e8:	06 c0       	rjmp	.+12     	; 0x19f6 <strtod+0x214>
    19ea:	4b 01       	movw	r8, r22
    19ec:	5c 01       	movw	r10, r24
    19ee:	b7 fa       	bst	r11, 7
    19f0:	b0 94       	com	r11
    19f2:	b7 f8       	bld	r11, 7
    19f4:	b0 94       	com	r11
    19f6:	20 e0       	ldi	r18, 0x00	; 0
    19f8:	30 e0       	ldi	r19, 0x00	; 0
    19fa:	a9 01       	movw	r20, r18
    19fc:	c5 01       	movw	r24, r10
    19fe:	b4 01       	movw	r22, r8
    1a00:	0e 94 84 0d 	call	0x1b08	; 0x1b08 <__cmpsf2>
    1a04:	88 23       	and	r24, r24
    1a06:	09 f4       	brne	.+2      	; 0x1a0a <strtod+0x228>
    1a08:	3e c0       	rjmp	.+124    	; 0x1a86 <strtod+0x2a4>
    1a0a:	d7 ff       	sbrs	r29, 7
    1a0c:	06 c0       	rjmp	.+12     	; 0x1a1a <strtod+0x238>
    1a0e:	d1 95       	neg	r29
    1a10:	c1 95       	neg	r28
    1a12:	d1 09       	sbc	r29, r1
    1a14:	08 ea       	ldi	r16, 0xA8	; 168
    1a16:	10 e0       	ldi	r17, 0x00	; 0
    1a18:	02 c0       	rjmp	.+4      	; 0x1a1e <strtod+0x23c>
    1a1a:	00 ec       	ldi	r16, 0xC0	; 192
    1a1c:	10 e0       	ldi	r17, 0x00	; 0
    1a1e:	68 01       	movw	r12, r16
    1a20:	b8 e1       	ldi	r27, 0x18	; 24
    1a22:	cb 1a       	sub	r12, r27
    1a24:	d1 08       	sbc	r13, r1
    1a26:	90 e2       	ldi	r25, 0x20	; 32
    1a28:	e9 2e       	mov	r14, r25
    1a2a:	f1 2c       	mov	r15, r1
    1a2c:	ce 15       	cp	r28, r14
    1a2e:	df 05       	cpc	r29, r15
    1a30:	74 f0       	brlt	.+28     	; 0x1a4e <strtod+0x26c>
    1a32:	f8 01       	movw	r30, r16
    1a34:	25 91       	lpm	r18, Z+
    1a36:	35 91       	lpm	r19, Z+
    1a38:	45 91       	lpm	r20, Z+
    1a3a:	54 91       	lpm	r21, Z
    1a3c:	c5 01       	movw	r24, r10
    1a3e:	b4 01       	movw	r22, r8
    1a40:	0e 94 e9 0d 	call	0x1bd2	; 0x1bd2 <__mulsf3>
    1a44:	4b 01       	movw	r8, r22
    1a46:	5c 01       	movw	r10, r24
    1a48:	ce 19       	sub	r28, r14
    1a4a:	df 09       	sbc	r29, r15
    1a4c:	ef cf       	rjmp	.-34     	; 0x1a2c <strtod+0x24a>
    1a4e:	04 50       	subi	r16, 0x04	; 4
    1a50:	11 09       	sbc	r17, r1
    1a52:	f5 94       	asr	r15
    1a54:	e7 94       	ror	r14
    1a56:	0c 15       	cp	r16, r12
    1a58:	1d 05       	cpc	r17, r13
    1a5a:	41 f7       	brne	.-48     	; 0x1a2c <strtod+0x24a>
    1a5c:	8a 2d       	mov	r24, r10
    1a5e:	88 0f       	add	r24, r24
    1a60:	8b 2d       	mov	r24, r11
    1a62:	88 1f       	adc	r24, r24
    1a64:	8f 3f       	cpi	r24, 0xFF	; 255
    1a66:	49 f0       	breq	.+18     	; 0x1a7a <strtod+0x298>
    1a68:	20 e0       	ldi	r18, 0x00	; 0
    1a6a:	30 e0       	ldi	r19, 0x00	; 0
    1a6c:	a9 01       	movw	r20, r18
    1a6e:	c5 01       	movw	r24, r10
    1a70:	b4 01       	movw	r22, r8
    1a72:	0e 94 84 0d 	call	0x1b08	; 0x1b08 <__cmpsf2>
    1a76:	81 11       	cpse	r24, r1
    1a78:	06 c0       	rjmp	.+12     	; 0x1a86 <strtod+0x2a4>
    1a7a:	82 e2       	ldi	r24, 0x22	; 34
    1a7c:	90 e0       	ldi	r25, 0x00	; 0
    1a7e:	90 93 4e 06 	sts	0x064E, r25
    1a82:	80 93 4d 06 	sts	0x064D, r24
    1a86:	c5 01       	movw	r24, r10
    1a88:	b4 01       	movw	r22, r8
    1a8a:	09 c0       	rjmp	.+18     	; 0x1a9e <strtod+0x2bc>
    1a8c:	60 e0       	ldi	r22, 0x00	; 0
    1a8e:	70 e0       	ldi	r23, 0x00	; 0
    1a90:	80 e8       	ldi	r24, 0x80	; 128
    1a92:	9f ef       	ldi	r25, 0xFF	; 255
    1a94:	04 c0       	rjmp	.+8      	; 0x1a9e <strtod+0x2bc>
    1a96:	60 e0       	ldi	r22, 0x00	; 0
    1a98:	70 e0       	ldi	r23, 0x00	; 0
    1a9a:	80 ec       	ldi	r24, 0xC0	; 192
    1a9c:	9f e7       	ldi	r25, 0x7F	; 127
    1a9e:	cd b7       	in	r28, 0x3d	; 61
    1aa0:	de b7       	in	r29, 0x3e	; 62
    1aa2:	ec e0       	ldi	r30, 0x0C	; 12
    1aa4:	0c 94 a4 0e 	jmp	0x1d48	; 0x1d48 <__epilogue_restores__+0xc>

00001aa8 <isspace>:
    1aa8:	91 11       	cpse	r25, r1
    1aaa:	f6 c0       	rjmp	.+492    	; 0x1c98 <__ctype_isfalse>
    1aac:	80 32       	cpi	r24, 0x20	; 32
    1aae:	19 f0       	breq	.+6      	; 0x1ab6 <isspace+0xe>
    1ab0:	89 50       	subi	r24, 0x09	; 9
    1ab2:	85 50       	subi	r24, 0x05	; 5
    1ab4:	d0 f7       	brcc	.-12     	; 0x1aaa <isspace+0x2>
    1ab6:	08 95       	ret

00001ab8 <strncasecmp_P>:
    1ab8:	fb 01       	movw	r30, r22
    1aba:	dc 01       	movw	r26, r24
    1abc:	41 50       	subi	r20, 0x01	; 1
    1abe:	50 40       	sbci	r21, 0x00	; 0
    1ac0:	88 f0       	brcs	.+34     	; 0x1ae4 <strncasecmp_P+0x2c>
    1ac2:	8d 91       	ld	r24, X+
    1ac4:	81 34       	cpi	r24, 0x41	; 65
    1ac6:	1c f0       	brlt	.+6      	; 0x1ace <strncasecmp_P+0x16>
    1ac8:	8b 35       	cpi	r24, 0x5B	; 91
    1aca:	0c f4       	brge	.+2      	; 0x1ace <strncasecmp_P+0x16>
    1acc:	80 5e       	subi	r24, 0xE0	; 224
    1ace:	65 91       	lpm	r22, Z+
    1ad0:	61 34       	cpi	r22, 0x41	; 65
    1ad2:	1c f0       	brlt	.+6      	; 0x1ada <strncasecmp_P+0x22>
    1ad4:	6b 35       	cpi	r22, 0x5B	; 91
    1ad6:	0c f4       	brge	.+2      	; 0x1ada <strncasecmp_P+0x22>
    1ad8:	60 5e       	subi	r22, 0xE0	; 224
    1ada:	86 1b       	sub	r24, r22
    1adc:	61 11       	cpse	r22, r1
    1ade:	71 f3       	breq	.-36     	; 0x1abc <strncasecmp_P+0x4>
    1ae0:	99 0b       	sbc	r25, r25
    1ae2:	08 95       	ret
    1ae4:	88 1b       	sub	r24, r24
    1ae6:	fc cf       	rjmp	.-8      	; 0x1ae0 <strncasecmp_P+0x28>

00001ae8 <strrev>:
    1ae8:	dc 01       	movw	r26, r24
    1aea:	fc 01       	movw	r30, r24
    1aec:	67 2f       	mov	r22, r23
    1aee:	71 91       	ld	r23, Z+
    1af0:	77 23       	and	r23, r23
    1af2:	e1 f7       	brne	.-8      	; 0x1aec <strrev+0x4>
    1af4:	32 97       	sbiw	r30, 0x02	; 2
    1af6:	04 c0       	rjmp	.+8      	; 0x1b00 <strrev+0x18>
    1af8:	7c 91       	ld	r23, X
    1afa:	6d 93       	st	X+, r22
    1afc:	70 83       	st	Z, r23
    1afe:	62 91       	ld	r22, -Z
    1b00:	ae 17       	cp	r26, r30
    1b02:	bf 07       	cpc	r27, r31
    1b04:	c8 f3       	brcs	.-14     	; 0x1af8 <strrev+0x10>
    1b06:	08 95       	ret

00001b08 <__cmpsf2>:
    1b08:	40 d0       	rcall	.+128    	; 0x1b8a <__fp_cmp>
    1b0a:	08 f4       	brcc	.+2      	; 0x1b0e <__cmpsf2+0x6>
    1b0c:	81 e0       	ldi	r24, 0x01	; 1
    1b0e:	08 95       	ret

00001b10 <__floatunsisf>:
    1b10:	e8 94       	clt
    1b12:	09 c0       	rjmp	.+18     	; 0x1b26 <__floatsisf+0x12>

00001b14 <__floatsisf>:
    1b14:	97 fb       	bst	r25, 7
    1b16:	3e f4       	brtc	.+14     	; 0x1b26 <__floatsisf+0x12>
    1b18:	90 95       	com	r25
    1b1a:	80 95       	com	r24
    1b1c:	70 95       	com	r23
    1b1e:	61 95       	neg	r22
    1b20:	7f 4f       	sbci	r23, 0xFF	; 255
    1b22:	8f 4f       	sbci	r24, 0xFF	; 255
    1b24:	9f 4f       	sbci	r25, 0xFF	; 255
    1b26:	99 23       	and	r25, r25
    1b28:	a9 f0       	breq	.+42     	; 0x1b54 <__floatsisf+0x40>
    1b2a:	f9 2f       	mov	r31, r25
    1b2c:	96 e9       	ldi	r25, 0x96	; 150
    1b2e:	bb 27       	eor	r27, r27
    1b30:	93 95       	inc	r25
    1b32:	f6 95       	lsr	r31
    1b34:	87 95       	ror	r24
    1b36:	77 95       	ror	r23
    1b38:	67 95       	ror	r22
    1b3a:	b7 95       	ror	r27
    1b3c:	f1 11       	cpse	r31, r1
    1b3e:	f8 cf       	rjmp	.-16     	; 0x1b30 <__floatsisf+0x1c>
    1b40:	fa f4       	brpl	.+62     	; 0x1b80 <__floatsisf+0x6c>
    1b42:	bb 0f       	add	r27, r27
    1b44:	11 f4       	brne	.+4      	; 0x1b4a <__floatsisf+0x36>
    1b46:	60 ff       	sbrs	r22, 0
    1b48:	1b c0       	rjmp	.+54     	; 0x1b80 <__floatsisf+0x6c>
    1b4a:	6f 5f       	subi	r22, 0xFF	; 255
    1b4c:	7f 4f       	sbci	r23, 0xFF	; 255
    1b4e:	8f 4f       	sbci	r24, 0xFF	; 255
    1b50:	9f 4f       	sbci	r25, 0xFF	; 255
    1b52:	16 c0       	rjmp	.+44     	; 0x1b80 <__floatsisf+0x6c>
    1b54:	88 23       	and	r24, r24
    1b56:	11 f0       	breq	.+4      	; 0x1b5c <__floatsisf+0x48>
    1b58:	96 e9       	ldi	r25, 0x96	; 150
    1b5a:	11 c0       	rjmp	.+34     	; 0x1b7e <__floatsisf+0x6a>
    1b5c:	77 23       	and	r23, r23
    1b5e:	21 f0       	breq	.+8      	; 0x1b68 <__floatsisf+0x54>
    1b60:	9e e8       	ldi	r25, 0x8E	; 142
    1b62:	87 2f       	mov	r24, r23
    1b64:	76 2f       	mov	r23, r22
    1b66:	05 c0       	rjmp	.+10     	; 0x1b72 <__floatsisf+0x5e>
    1b68:	66 23       	and	r22, r22
    1b6a:	71 f0       	breq	.+28     	; 0x1b88 <__floatsisf+0x74>
    1b6c:	96 e8       	ldi	r25, 0x86	; 134
    1b6e:	86 2f       	mov	r24, r22
    1b70:	70 e0       	ldi	r23, 0x00	; 0
    1b72:	60 e0       	ldi	r22, 0x00	; 0
    1b74:	2a f0       	brmi	.+10     	; 0x1b80 <__floatsisf+0x6c>
    1b76:	9a 95       	dec	r25
    1b78:	66 0f       	add	r22, r22
    1b7a:	77 1f       	adc	r23, r23
    1b7c:	88 1f       	adc	r24, r24
    1b7e:	da f7       	brpl	.-10     	; 0x1b76 <__floatsisf+0x62>
    1b80:	88 0f       	add	r24, r24
    1b82:	96 95       	lsr	r25
    1b84:	87 95       	ror	r24
    1b86:	97 f9       	bld	r25, 7
    1b88:	08 95       	ret

00001b8a <__fp_cmp>:
    1b8a:	99 0f       	add	r25, r25
    1b8c:	00 08       	sbc	r0, r0
    1b8e:	55 0f       	add	r21, r21
    1b90:	aa 0b       	sbc	r26, r26
    1b92:	e0 e8       	ldi	r30, 0x80	; 128
    1b94:	fe ef       	ldi	r31, 0xFE	; 254
    1b96:	16 16       	cp	r1, r22
    1b98:	17 06       	cpc	r1, r23
    1b9a:	e8 07       	cpc	r30, r24
    1b9c:	f9 07       	cpc	r31, r25
    1b9e:	c0 f0       	brcs	.+48     	; 0x1bd0 <__fp_cmp+0x46>
    1ba0:	12 16       	cp	r1, r18
    1ba2:	13 06       	cpc	r1, r19
    1ba4:	e4 07       	cpc	r30, r20
    1ba6:	f5 07       	cpc	r31, r21
    1ba8:	98 f0       	brcs	.+38     	; 0x1bd0 <__fp_cmp+0x46>
    1baa:	62 1b       	sub	r22, r18
    1bac:	73 0b       	sbc	r23, r19
    1bae:	84 0b       	sbc	r24, r20
    1bb0:	95 0b       	sbc	r25, r21
    1bb2:	39 f4       	brne	.+14     	; 0x1bc2 <__fp_cmp+0x38>
    1bb4:	0a 26       	eor	r0, r26
    1bb6:	61 f0       	breq	.+24     	; 0x1bd0 <__fp_cmp+0x46>
    1bb8:	23 2b       	or	r18, r19
    1bba:	24 2b       	or	r18, r20
    1bbc:	25 2b       	or	r18, r21
    1bbe:	21 f4       	brne	.+8      	; 0x1bc8 <__fp_cmp+0x3e>
    1bc0:	08 95       	ret
    1bc2:	0a 26       	eor	r0, r26
    1bc4:	09 f4       	brne	.+2      	; 0x1bc8 <__fp_cmp+0x3e>
    1bc6:	a1 40       	sbci	r26, 0x01	; 1
    1bc8:	a6 95       	lsr	r26
    1bca:	8f ef       	ldi	r24, 0xFF	; 255
    1bcc:	81 1d       	adc	r24, r1
    1bce:	81 1d       	adc	r24, r1
    1bd0:	08 95       	ret

00001bd2 <__mulsf3>:
    1bd2:	0b d0       	rcall	.+22     	; 0x1bea <__mulsf3x>
    1bd4:	7b c0       	rjmp	.+246    	; 0x1ccc <__fp_round>
    1bd6:	6c d0       	rcall	.+216    	; 0x1cb0 <__fp_pscA>
    1bd8:	28 f0       	brcs	.+10     	; 0x1be4 <__mulsf3+0x12>
    1bda:	71 d0       	rcall	.+226    	; 0x1cbe <__fp_pscB>
    1bdc:	18 f0       	brcs	.+6      	; 0x1be4 <__mulsf3+0x12>
    1bde:	95 23       	and	r25, r21
    1be0:	09 f0       	breq	.+2      	; 0x1be4 <__mulsf3+0x12>
    1be2:	5d c0       	rjmp	.+186    	; 0x1c9e <__fp_inf>
    1be4:	62 c0       	rjmp	.+196    	; 0x1caa <__fp_nan>
    1be6:	11 24       	eor	r1, r1
    1be8:	5a cd       	rjmp	.-1356   	; 0x169e <__fp_szero>

00001bea <__mulsf3x>:
    1bea:	36 dd       	rcall	.-1428   	; 0x1658 <__fp_split3>
    1bec:	a0 f3       	brcs	.-24     	; 0x1bd6 <__mulsf3+0x4>

00001bee <__mulsf3_pse>:
    1bee:	95 9f       	mul	r25, r21
    1bf0:	d1 f3       	breq	.-12     	; 0x1be6 <__mulsf3+0x14>
    1bf2:	95 0f       	add	r25, r21
    1bf4:	50 e0       	ldi	r21, 0x00	; 0
    1bf6:	55 1f       	adc	r21, r21
    1bf8:	62 9f       	mul	r22, r18
    1bfa:	f0 01       	movw	r30, r0
    1bfc:	72 9f       	mul	r23, r18
    1bfe:	bb 27       	eor	r27, r27
    1c00:	f0 0d       	add	r31, r0
    1c02:	b1 1d       	adc	r27, r1
    1c04:	63 9f       	mul	r22, r19
    1c06:	aa 27       	eor	r26, r26
    1c08:	f0 0d       	add	r31, r0
    1c0a:	b1 1d       	adc	r27, r1
    1c0c:	aa 1f       	adc	r26, r26
    1c0e:	64 9f       	mul	r22, r20
    1c10:	66 27       	eor	r22, r22
    1c12:	b0 0d       	add	r27, r0
    1c14:	a1 1d       	adc	r26, r1
    1c16:	66 1f       	adc	r22, r22
    1c18:	82 9f       	mul	r24, r18
    1c1a:	22 27       	eor	r18, r18
    1c1c:	b0 0d       	add	r27, r0
    1c1e:	a1 1d       	adc	r26, r1
    1c20:	62 1f       	adc	r22, r18
    1c22:	73 9f       	mul	r23, r19
    1c24:	b0 0d       	add	r27, r0
    1c26:	a1 1d       	adc	r26, r1
    1c28:	62 1f       	adc	r22, r18
    1c2a:	83 9f       	mul	r24, r19
    1c2c:	a0 0d       	add	r26, r0
    1c2e:	61 1d       	adc	r22, r1
    1c30:	22 1f       	adc	r18, r18
    1c32:	74 9f       	mul	r23, r20
    1c34:	33 27       	eor	r19, r19
    1c36:	a0 0d       	add	r26, r0
    1c38:	61 1d       	adc	r22, r1
    1c3a:	23 1f       	adc	r18, r19
    1c3c:	84 9f       	mul	r24, r20
    1c3e:	60 0d       	add	r22, r0
    1c40:	21 1d       	adc	r18, r1
    1c42:	82 2f       	mov	r24, r18
    1c44:	76 2f       	mov	r23, r22
    1c46:	6a 2f       	mov	r22, r26
    1c48:	11 24       	eor	r1, r1
    1c4a:	9f 57       	subi	r25, 0x7F	; 127
    1c4c:	50 40       	sbci	r21, 0x00	; 0
    1c4e:	8a f0       	brmi	.+34     	; 0x1c72 <__mulsf3_pse+0x84>
    1c50:	e1 f0       	breq	.+56     	; 0x1c8a <__mulsf3_pse+0x9c>
    1c52:	88 23       	and	r24, r24
    1c54:	4a f0       	brmi	.+18     	; 0x1c68 <__mulsf3_pse+0x7a>
    1c56:	ee 0f       	add	r30, r30
    1c58:	ff 1f       	adc	r31, r31
    1c5a:	bb 1f       	adc	r27, r27
    1c5c:	66 1f       	adc	r22, r22
    1c5e:	77 1f       	adc	r23, r23
    1c60:	88 1f       	adc	r24, r24
    1c62:	91 50       	subi	r25, 0x01	; 1
    1c64:	50 40       	sbci	r21, 0x00	; 0
    1c66:	a9 f7       	brne	.-22     	; 0x1c52 <__mulsf3_pse+0x64>
    1c68:	9e 3f       	cpi	r25, 0xFE	; 254
    1c6a:	51 05       	cpc	r21, r1
    1c6c:	70 f0       	brcs	.+28     	; 0x1c8a <__mulsf3_pse+0x9c>
    1c6e:	17 c0       	rjmp	.+46     	; 0x1c9e <__fp_inf>
    1c70:	16 cd       	rjmp	.-1492   	; 0x169e <__fp_szero>
    1c72:	5f 3f       	cpi	r21, 0xFF	; 255
    1c74:	ec f3       	brlt	.-6      	; 0x1c70 <__mulsf3_pse+0x82>
    1c76:	98 3e       	cpi	r25, 0xE8	; 232
    1c78:	dc f3       	brlt	.-10     	; 0x1c70 <__mulsf3_pse+0x82>
    1c7a:	86 95       	lsr	r24
    1c7c:	77 95       	ror	r23
    1c7e:	67 95       	ror	r22
    1c80:	b7 95       	ror	r27
    1c82:	f7 95       	ror	r31
    1c84:	e7 95       	ror	r30
    1c86:	9f 5f       	subi	r25, 0xFF	; 255
    1c88:	c1 f7       	brne	.-16     	; 0x1c7a <__mulsf3_pse+0x8c>
    1c8a:	fe 2b       	or	r31, r30
    1c8c:	88 0f       	add	r24, r24
    1c8e:	91 1d       	adc	r25, r1
    1c90:	96 95       	lsr	r25
    1c92:	87 95       	ror	r24
    1c94:	97 f9       	bld	r25, 7
    1c96:	08 95       	ret

00001c98 <__ctype_isfalse>:
    1c98:	99 27       	eor	r25, r25
    1c9a:	88 27       	eor	r24, r24

00001c9c <__ctype_istrue>:
    1c9c:	08 95       	ret

00001c9e <__fp_inf>:
    1c9e:	97 f9       	bld	r25, 7
    1ca0:	9f 67       	ori	r25, 0x7F	; 127
    1ca2:	80 e8       	ldi	r24, 0x80	; 128
    1ca4:	70 e0       	ldi	r23, 0x00	; 0
    1ca6:	60 e0       	ldi	r22, 0x00	; 0
    1ca8:	08 95       	ret

00001caa <__fp_nan>:
    1caa:	9f ef       	ldi	r25, 0xFF	; 255
    1cac:	80 ec       	ldi	r24, 0xC0	; 192
    1cae:	08 95       	ret

00001cb0 <__fp_pscA>:
    1cb0:	00 24       	eor	r0, r0
    1cb2:	0a 94       	dec	r0
    1cb4:	16 16       	cp	r1, r22
    1cb6:	17 06       	cpc	r1, r23
    1cb8:	18 06       	cpc	r1, r24
    1cba:	09 06       	cpc	r0, r25
    1cbc:	08 95       	ret

00001cbe <__fp_pscB>:
    1cbe:	00 24       	eor	r0, r0
    1cc0:	0a 94       	dec	r0
    1cc2:	12 16       	cp	r1, r18
    1cc4:	13 06       	cpc	r1, r19
    1cc6:	14 06       	cpc	r1, r20
    1cc8:	05 06       	cpc	r0, r21
    1cca:	08 95       	ret

00001ccc <__fp_round>:
    1ccc:	09 2e       	mov	r0, r25
    1cce:	03 94       	inc	r0
    1cd0:	00 0c       	add	r0, r0
    1cd2:	11 f4       	brne	.+4      	; 0x1cd8 <__fp_round+0xc>
    1cd4:	88 23       	and	r24, r24
    1cd6:	52 f0       	brmi	.+20     	; 0x1cec <__fp_round+0x20>
    1cd8:	bb 0f       	add	r27, r27
    1cda:	40 f4       	brcc	.+16     	; 0x1cec <__fp_round+0x20>
    1cdc:	bf 2b       	or	r27, r31
    1cde:	11 f4       	brne	.+4      	; 0x1ce4 <__fp_round+0x18>
    1ce0:	60 ff       	sbrs	r22, 0
    1ce2:	04 c0       	rjmp	.+8      	; 0x1cec <__fp_round+0x20>
    1ce4:	6f 5f       	subi	r22, 0xFF	; 255
    1ce6:	7f 4f       	sbci	r23, 0xFF	; 255
    1ce8:	8f 4f       	sbci	r24, 0xFF	; 255
    1cea:	9f 4f       	sbci	r25, 0xFF	; 255
    1cec:	08 95       	ret

00001cee <__muluhisi3>:
    1cee:	0e 94 77 0b 	call	0x16ee	; 0x16ee <__umulhisi3>
    1cf2:	a5 9f       	mul	r26, r21
    1cf4:	90 0d       	add	r25, r0
    1cf6:	b4 9f       	mul	r27, r20
    1cf8:	90 0d       	add	r25, r0
    1cfa:	a4 9f       	mul	r26, r20
    1cfc:	80 0d       	add	r24, r0
    1cfe:	91 1d       	adc	r25, r1
    1d00:	11 24       	eor	r1, r1
    1d02:	08 95       	ret

00001d04 <__prologue_saves__>:
    1d04:	2f 92       	push	r2
    1d06:	3f 92       	push	r3
    1d08:	4f 92       	push	r4
    1d0a:	5f 92       	push	r5
    1d0c:	6f 92       	push	r6
    1d0e:	7f 92       	push	r7
    1d10:	8f 92       	push	r8
    1d12:	9f 92       	push	r9
    1d14:	af 92       	push	r10
    1d16:	bf 92       	push	r11
    1d18:	cf 92       	push	r12
    1d1a:	df 92       	push	r13
    1d1c:	ef 92       	push	r14
    1d1e:	ff 92       	push	r15
    1d20:	0f 93       	push	r16
    1d22:	1f 93       	push	r17
    1d24:	cf 93       	push	r28
    1d26:	df 93       	push	r29
    1d28:	cd b7       	in	r28, 0x3d	; 61
    1d2a:	de b7       	in	r29, 0x3e	; 62
    1d2c:	ca 1b       	sub	r28, r26
    1d2e:	db 0b       	sbc	r29, r27
    1d30:	0f b6       	in	r0, 0x3f	; 63
    1d32:	f8 94       	cli
    1d34:	de bf       	out	0x3e, r29	; 62
    1d36:	0f be       	out	0x3f, r0	; 63
    1d38:	cd bf       	out	0x3d, r28	; 61
    1d3a:	09 94       	ijmp

00001d3c <__epilogue_restores__>:
    1d3c:	2a 88       	ldd	r2, Y+18	; 0x12
    1d3e:	39 88       	ldd	r3, Y+17	; 0x11
    1d40:	48 88       	ldd	r4, Y+16	; 0x10
    1d42:	5f 84       	ldd	r5, Y+15	; 0x0f
    1d44:	6e 84       	ldd	r6, Y+14	; 0x0e
    1d46:	7d 84       	ldd	r7, Y+13	; 0x0d
    1d48:	8c 84       	ldd	r8, Y+12	; 0x0c
    1d4a:	9b 84       	ldd	r9, Y+11	; 0x0b
    1d4c:	aa 84       	ldd	r10, Y+10	; 0x0a
    1d4e:	b9 84       	ldd	r11, Y+9	; 0x09
    1d50:	c8 84       	ldd	r12, Y+8	; 0x08
    1d52:	df 80       	ldd	r13, Y+7	; 0x07
    1d54:	ee 80       	ldd	r14, Y+6	; 0x06
    1d56:	fd 80       	ldd	r15, Y+5	; 0x05
    1d58:	0c 81       	ldd	r16, Y+4	; 0x04
    1d5a:	1b 81       	ldd	r17, Y+3	; 0x03
    1d5c:	aa 81       	ldd	r26, Y+2	; 0x02
    1d5e:	b9 81       	ldd	r27, Y+1	; 0x01
    1d60:	ce 0f       	add	r28, r30
    1d62:	d1 1d       	adc	r29, r1
    1d64:	0f b6       	in	r0, 0x3f	; 63
    1d66:	f8 94       	cli
    1d68:	de bf       	out	0x3e, r29	; 62
    1d6a:	0f be       	out	0x3f, r0	; 63
    1d6c:	cd bf       	out	0x3d, r28	; 61
    1d6e:	ed 01       	movw	r28, r26
    1d70:	08 95       	ret

00001d72 <_exit>:
    1d72:	f8 94       	cli

00001d74 <__stop_program>:
    1d74:	ff cf       	rjmp	.-2      	; 0x1d74 <__stop_program>
