
My_Project_6_2(1).elf:     file format elf32-avr

Sections:
Idx Name          Size      VMA       LMA       File off  Algn
  0 .data         000000f0  00800100  000018e0  00001974  2**0
                  CONTENTS, ALLOC, LOAD, DATA
  1 .text         000018e0  00000000  00000000  00000094  2**1
                  CONTENTS, ALLOC, LOAD, READONLY, CODE
  2 .bss          00000070  008001f0  008001f0  00001a64  2**0
                  ALLOC
  3 .comment      0000005c  00000000  00000000  00001a64  2**0
                  CONTENTS, READONLY
  4 .note.gnu.avr.deviceinfo 00000040  00000000  00000000  00001ac0  2**2
                  CONTENTS, READONLY
  5 .debug_aranges 00000158  00000000  00000000  00001b00  2**0
                  CONTENTS, READONLY, DEBUGGING
  6 .debug_info   000014e7  00000000  00000000  00001c58  2**0
                  CONTENTS, READONLY, DEBUGGING
  7 .debug_abbrev 00000b22  00000000  00000000  0000313f  2**0
                  CONTENTS, READONLY, DEBUGGING
  8 .debug_line   00001199  00000000  00000000  00003c61  2**0
                  CONTENTS, READONLY, DEBUGGING
  9 .debug_frame  0000054c  00000000  00000000  00004dfc  2**2
                  CONTENTS, READONLY, DEBUGGING
 10 .debug_str    000008ab  00000000  00000000  00005348  2**0
                  CONTENTS, READONLY, DEBUGGING
 11 .debug_loc    00000af6  00000000  00000000  00005bf3  2**0
                  CONTENTS, READONLY, DEBUGGING
 12 .debug_ranges 00000128  00000000  00000000  000066e9  2**0
                  CONTENTS, READONLY, DEBUGGING

Disassembly of section .text:

00000000 <__vectors>:
       0:	0c 94 3e 00 	jmp	0x7c	; 0x7c <__ctors_end>
       4:	0c 94 5b 00 	jmp	0xb6	; 0xb6 <__bad_interrupt>
       8:	0c 94 5b 00 	jmp	0xb6	; 0xb6 <__bad_interrupt>
       c:	0c 94 5b 00 	jmp	0xb6	; 0xb6 <__bad_interrupt>
      10:	0c 94 5b 00 	jmp	0xb6	; 0xb6 <__bad_interrupt>
      14:	0c 94 5b 00 	jmp	0xb6	; 0xb6 <__bad_interrupt>
      18:	0c 94 5b 00 	jmp	0xb6	; 0xb6 <__bad_interrupt>
      1c:	0c 94 5b 00 	jmp	0xb6	; 0xb6 <__bad_interrupt>
      20:	0c 94 5b 00 	jmp	0xb6	; 0xb6 <__bad_interrupt>
      24:	0c 94 5b 00 	jmp	0xb6	; 0xb6 <__bad_interrupt>
      28:	0c 94 5b 00 	jmp	0xb6	; 0xb6 <__bad_interrupt>
      2c:	0c 94 5b 00 	jmp	0xb6	; 0xb6 <__bad_interrupt>
      30:	0c 94 5b 00 	jmp	0xb6	; 0xb6 <__bad_interrupt>
      34:	0c 94 5b 00 	jmp	0xb6	; 0xb6 <__bad_interrupt>
      38:	0c 94 5b 00 	jmp	0xb6	; 0xb6 <__bad_interrupt>
      3c:	0c 94 5b 00 	jmp	0xb6	; 0xb6 <__bad_interrupt>
      40:	0c 94 2c 05 	jmp	0xa58	; 0xa58 <__vector_16>
      44:	0c 94 5b 00 	jmp	0xb6	; 0xb6 <__bad_interrupt>
      48:	0c 94 5b 00 	jmp	0xb6	; 0xb6 <__bad_interrupt>
      4c:	0c 94 5b 00 	jmp	0xb6	; 0xb6 <__bad_interrupt>
      50:	0c 94 8a 01 	jmp	0x314	; 0x314 <__vector_20>
      54:	0c 94 5b 00 	jmp	0xb6	; 0xb6 <__bad_interrupt>
      58:	0c 94 5b 00 	jmp	0xb6	; 0xb6 <__bad_interrupt>
      5c:	0c 94 5b 00 	jmp	0xb6	; 0xb6 <__bad_interrupt>
      60:	0c 94 5b 00 	jmp	0xb6	; 0xb6 <__bad_interrupt>
      64:	0c 94 5b 00 	jmp	0xb6	; 0xb6 <__bad_interrupt>
      68:	0c 94 5b 00 	jmp	0xb6	; 0xb6 <__bad_interrupt>
      6c:	0c 94 5b 00 	jmp	0xb6	; 0xb6 <__bad_interrupt>
      70:	0c 94 e5 01 	jmp	0x3ca	; 0x3ca <__vector_28>
      74:	0c 94 5b 00 	jmp	0xb6	; 0xb6 <__bad_interrupt>
      78:	0c 94 5b 00 	jmp	0xb6	; 0xb6 <__bad_interrupt>

0000007c <__ctors_end>:
      7c:	11 24       	eor	r1, r1
      7e:	1f be       	out	0x3f, r1	; 63
      80:	cf ef       	ldi	r28, 0xFF	; 255
      82:	d0 e1       	ldi	r29, 0x10	; 16
      84:	de bf       	out	0x3e, r29	; 62
      86:	cd bf       	out	0x3d, r28	; 61

00000088 <__do_copy_data>:
      88:	11 e0       	ldi	r17, 0x01	; 1
      8a:	a0 e0       	ldi	r26, 0x00	; 0
      8c:	b1 e0       	ldi	r27, 0x01	; 1
      8e:	e0 ee       	ldi	r30, 0xE0	; 224
      90:	f8 e1       	ldi	r31, 0x18	; 24
      92:	02 c0       	rjmp	.+4      	; 0x98 <__do_copy_data+0x10>
      94:	05 90       	lpm	r0, Z+
      96:	0d 92       	st	X+, r0
      98:	a0 3f       	cpi	r26, 0xF0	; 240
      9a:	b1 07       	cpc	r27, r17
      9c:	d9 f7       	brne	.-10     	; 0x94 <__do_copy_data+0xc>

0000009e <__do_clear_bss>:
      9e:	22 e0       	ldi	r18, 0x02	; 2
      a0:	a0 ef       	ldi	r26, 0xF0	; 240
      a2:	b1 e0       	ldi	r27, 0x01	; 1
      a4:	01 c0       	rjmp	.+2      	; 0xa8 <.do_clear_bss_start>

000000a6 <.do_clear_bss_loop>:
      a6:	1d 92       	st	X+, r1

000000a8 <.do_clear_bss_start>:
      a8:	a0 36       	cpi	r26, 0x60	; 96
      aa:	b2 07       	cpc	r27, r18
      ac:	e1 f7       	brne	.-8      	; 0xa6 <.do_clear_bss_loop>
      ae:	0e 94 33 02 	call	0x466	; 0x466 <main>
      b2:	0c 94 6e 0c 	jmp	0x18dc	; 0x18dc <_exit>

000000b6 <__bad_interrupt>:
      b6:	0c 94 00 00 	jmp	0	; 0x0 <__vectors>

000000ba <get_LCD_Taster>:
void back2pc (char *str)
{
	to_pc(str);
	//to_pc("M2200\n"); //uARM in moving? 1 Yes / 0 N0
	//while(uart_string1[4] == 0x31) //ASCII '1' --> moving
}
      ba:	cf 93       	push	r28
      bc:	df 93       	push	r29
      be:	1f 92       	push	r1
      c0:	cd b7       	in	r28, 0x3d	; 61
      c2:	de b7       	in	r29, 0x3e	; 62
      c4:	85 e2       	ldi	r24, 0x25	; 37
      c6:	90 e0       	ldi	r25, 0x00	; 0
      c8:	25 e2       	ldi	r18, 0x25	; 37
      ca:	30 e0       	ldi	r19, 0x00	; 0
      cc:	f9 01       	movw	r30, r18
      ce:	20 81       	ld	r18, Z
      d0:	20 7f       	andi	r18, 0xF0	; 240
      d2:	fc 01       	movw	r30, r24
      d4:	20 83       	st	Z, r18
      d6:	84 e2       	ldi	r24, 0x24	; 36
      d8:	90 e0       	ldi	r25, 0x00	; 0
      da:	20 ef       	ldi	r18, 0xF0	; 240
      dc:	fc 01       	movw	r30, r24
      de:	20 83       	st	Z, r18
	...
      f4:	83 e2       	ldi	r24, 0x23	; 35
      f6:	90 e0       	ldi	r25, 0x00	; 0
      f8:	fc 01       	movw	r30, r24
      fa:	80 81       	ld	r24, Z
      fc:	8f 70       	andi	r24, 0x0F	; 15
      fe:	89 83       	std	Y+1, r24	; 0x01
     100:	84 e2       	ldi	r24, 0x24	; 36
     102:	90 e0       	ldi	r25, 0x00	; 0
     104:	2f ef       	ldi	r18, 0xFF	; 255
     106:	fc 01       	movw	r30, r24
     108:	20 83       	st	Z, r18
     10a:	89 81       	ldd	r24, Y+1	; 0x01
     10c:	0f 90       	pop	r0
     10e:	df 91       	pop	r29
     110:	cf 91       	pop	r28
     112:	08 95       	ret

00000114 <init_ADC>:
     114:	cf 93       	push	r28
     116:	df 93       	push	r29
     118:	cd b7       	in	r28, 0x3d	; 61
     11a:	de b7       	in	r29, 0x3e	; 62
     11c:	8a e7       	ldi	r24, 0x7A	; 122
     11e:	90 e0       	ldi	r25, 0x00	; 0
     120:	2a e7       	ldi	r18, 0x7A	; 122
     122:	30 e0       	ldi	r19, 0x00	; 0
     124:	f9 01       	movw	r30, r18
     126:	20 81       	ld	r18, Z
     128:	20 68       	ori	r18, 0x80	; 128
     12a:	fc 01       	movw	r30, r24
     12c:	20 83       	st	Z, r18
     12e:	8c e7       	ldi	r24, 0x7C	; 124
     130:	90 e0       	ldi	r25, 0x00	; 0
     132:	2c e7       	ldi	r18, 0x7C	; 124
     134:	30 e0       	ldi	r19, 0x00	; 0
     136:	f9 01       	movw	r30, r18
     138:	20 81       	ld	r18, Z
     13a:	20 64       	ori	r18, 0x40	; 64
     13c:	fc 01       	movw	r30, r24
     13e:	20 83       	st	Z, r18
     140:	8a e7       	ldi	r24, 0x7A	; 122
     142:	90 e0       	ldi	r25, 0x00	; 0
     144:	2a e7       	ldi	r18, 0x7A	; 122
     146:	30 e0       	ldi	r19, 0x00	; 0
     148:	f9 01       	movw	r30, r18
     14a:	20 81       	ld	r18, Z
     14c:	27 60       	ori	r18, 0x07	; 7
     14e:	fc 01       	movw	r30, r24
     150:	20 83       	st	Z, r18
     152:	00 00       	nop
     154:	df 91       	pop	r29
     156:	cf 91       	pop	r28
     158:	08 95       	ret

0000015a <init_UART0>:
     15a:	cf 93       	push	r28
     15c:	df 93       	push	r29
     15e:	cd b7       	in	r28, 0x3d	; 61
     160:	de b7       	in	r29, 0x3e	; 62
     162:	84 ec       	ldi	r24, 0xC4	; 196
     164:	90 e0       	ldi	r25, 0x00	; 0
     166:	20 e1       	ldi	r18, 0x10	; 16
     168:	30 e0       	ldi	r19, 0x00	; 0
     16a:	fc 01       	movw	r30, r24
     16c:	31 83       	std	Z+1, r19	; 0x01
     16e:	20 83       	st	Z, r18
     170:	80 ec       	ldi	r24, 0xC0	; 192
     172:	90 e0       	ldi	r25, 0x00	; 0
     174:	20 ec       	ldi	r18, 0xC0	; 192
     176:	30 e0       	ldi	r19, 0x00	; 0
     178:	f9 01       	movw	r30, r18
     17a:	20 81       	ld	r18, Z
     17c:	22 60       	ori	r18, 0x02	; 2
     17e:	fc 01       	movw	r30, r24
     180:	20 83       	st	Z, r18
     182:	81 ec       	ldi	r24, 0xC1	; 193
     184:	90 e0       	ldi	r25, 0x00	; 0
     186:	21 ec       	ldi	r18, 0xC1	; 193
     188:	30 e0       	ldi	r19, 0x00	; 0
     18a:	f9 01       	movw	r30, r18
     18c:	20 81       	ld	r18, Z
     18e:	28 69       	ori	r18, 0x98	; 152
     190:	fc 01       	movw	r30, r24
     192:	20 83       	st	Z, r18
     194:	00 00       	nop
     196:	df 91       	pop	r29
     198:	cf 91       	pop	r28
     19a:	08 95       	ret

0000019c <init_UART1>:
     19c:	cf 93       	push	r28
     19e:	df 93       	push	r29
     1a0:	cd b7       	in	r28, 0x3d	; 61
     1a2:	de b7       	in	r29, 0x3e	; 62
     1a4:	8c ec       	ldi	r24, 0xCC	; 204
     1a6:	90 e0       	ldi	r25, 0x00	; 0
     1a8:	20 e1       	ldi	r18, 0x10	; 16
     1aa:	30 e0       	ldi	r19, 0x00	; 0
     1ac:	fc 01       	movw	r30, r24
     1ae:	31 83       	std	Z+1, r19	; 0x01
     1b0:	20 83       	st	Z, r18
     1b2:	88 ec       	ldi	r24, 0xC8	; 200
     1b4:	90 e0       	ldi	r25, 0x00	; 0
     1b6:	28 ec       	ldi	r18, 0xC8	; 200
     1b8:	30 e0       	ldi	r19, 0x00	; 0
     1ba:	f9 01       	movw	r30, r18
     1bc:	20 81       	ld	r18, Z
     1be:	22 60       	ori	r18, 0x02	; 2
     1c0:	fc 01       	movw	r30, r24
     1c2:	20 83       	st	Z, r18
     1c4:	89 ec       	ldi	r24, 0xC9	; 201
     1c6:	90 e0       	ldi	r25, 0x00	; 0
     1c8:	29 ec       	ldi	r18, 0xC9	; 201
     1ca:	30 e0       	ldi	r19, 0x00	; 0
     1cc:	f9 01       	movw	r30, r18
     1ce:	20 81       	ld	r18, Z
     1d0:	28 69       	ori	r18, 0x98	; 152
     1d2:	fc 01       	movw	r30, r24
     1d4:	20 83       	st	Z, r18
     1d6:	00 00       	nop
     1d8:	df 91       	pop	r29
     1da:	cf 91       	pop	r28
     1dc:	08 95       	ret

000001de <send_Byte_0>:
     1de:	cf 93       	push	r28
     1e0:	df 93       	push	r29
     1e2:	1f 92       	push	r1
     1e4:	cd b7       	in	r28, 0x3d	; 61
     1e6:	de b7       	in	r29, 0x3e	; 62
     1e8:	89 83       	std	Y+1, r24	; 0x01
     1ea:	00 00       	nop
     1ec:	80 ec       	ldi	r24, 0xC0	; 192
     1ee:	90 e0       	ldi	r25, 0x00	; 0
     1f0:	fc 01       	movw	r30, r24
     1f2:	80 81       	ld	r24, Z
     1f4:	88 2f       	mov	r24, r24
     1f6:	90 e0       	ldi	r25, 0x00	; 0
     1f8:	80 72       	andi	r24, 0x20	; 32
     1fa:	99 27       	eor	r25, r25
     1fc:	89 2b       	or	r24, r25
     1fe:	b1 f3       	breq	.-20     	; 0x1ec <send_Byte_0+0xe>
     200:	86 ec       	ldi	r24, 0xC6	; 198
     202:	90 e0       	ldi	r25, 0x00	; 0
     204:	29 81       	ldd	r18, Y+1	; 0x01
     206:	fc 01       	movw	r30, r24
     208:	20 83       	st	Z, r18
     20a:	00 00       	nop
     20c:	0f 90       	pop	r0
     20e:	df 91       	pop	r29
     210:	cf 91       	pop	r28
     212:	08 95       	ret

00000214 <send_Byte_1>:
     214:	cf 93       	push	r28
     216:	df 93       	push	r29
     218:	1f 92       	push	r1
     21a:	cd b7       	in	r28, 0x3d	; 61
     21c:	de b7       	in	r29, 0x3e	; 62
     21e:	89 83       	std	Y+1, r24	; 0x01
     220:	00 00       	nop
     222:	88 ec       	ldi	r24, 0xC8	; 200
     224:	90 e0       	ldi	r25, 0x00	; 0
     226:	fc 01       	movw	r30, r24
     228:	80 81       	ld	r24, Z
     22a:	88 2f       	mov	r24, r24
     22c:	90 e0       	ldi	r25, 0x00	; 0
     22e:	80 72       	andi	r24, 0x20	; 32
     230:	99 27       	eor	r25, r25
     232:	89 2b       	or	r24, r25
     234:	b1 f3       	breq	.-20     	; 0x222 <send_Byte_1+0xe>
     236:	8e ec       	ldi	r24, 0xCE	; 206
     238:	90 e0       	ldi	r25, 0x00	; 0
     23a:	29 81       	ldd	r18, Y+1	; 0x01
     23c:	fc 01       	movw	r30, r24
     23e:	20 83       	st	Z, r18
     240:	00 00       	nop
     242:	0f 90       	pop	r0
     244:	df 91       	pop	r29
     246:	cf 91       	pop	r28
     248:	08 95       	ret

0000024a <to_pc>:
     24a:	cf 93       	push	r28
     24c:	df 93       	push	r29
     24e:	00 d0       	rcall	.+0      	; 0x250 <to_pc+0x6>
     250:	cd b7       	in	r28, 0x3d	; 61
     252:	de b7       	in	r29, 0x3e	; 62
     254:	9a 83       	std	Y+2, r25	; 0x02
     256:	89 83       	std	Y+1, r24	; 0x01
     258:	0b c0       	rjmp	.+22     	; 0x270 <to_pc+0x26>
     25a:	89 81       	ldd	r24, Y+1	; 0x01
     25c:	9a 81       	ldd	r25, Y+2	; 0x02
     25e:	fc 01       	movw	r30, r24
     260:	80 81       	ld	r24, Z
     262:	0e 94 ef 00 	call	0x1de	; 0x1de <send_Byte_0>
     266:	89 81       	ldd	r24, Y+1	; 0x01
     268:	9a 81       	ldd	r25, Y+2	; 0x02
     26a:	01 96       	adiw	r24, 0x01	; 1
     26c:	9a 83       	std	Y+2, r25	; 0x02
     26e:	89 83       	std	Y+1, r24	; 0x01
     270:	89 81       	ldd	r24, Y+1	; 0x01
     272:	9a 81       	ldd	r25, Y+2	; 0x02
     274:	fc 01       	movw	r30, r24
     276:	80 81       	ld	r24, Z
     278:	88 23       	and	r24, r24
     27a:	79 f7       	brne	.-34     	; 0x25a <to_pc+0x10>
     27c:	10 92 f0 01 	sts	0x01F0, r1	; 0x8001f0 <__data_end>
     280:	00 00       	nop
     282:	0f 90       	pop	r0
     284:	0f 90       	pop	r0
     286:	df 91       	pop	r29
     288:	cf 91       	pop	r28
     28a:	08 95       	ret

0000028c <to_uARM>:
     28c:	cf 93       	push	r28
     28e:	df 93       	push	r29
     290:	00 d0       	rcall	.+0      	; 0x292 <to_uARM+0x6>
     292:	cd b7       	in	r28, 0x3d	; 61
     294:	de b7       	in	r29, 0x3e	; 62
     296:	9a 83       	std	Y+2, r25	; 0x02
     298:	89 83       	std	Y+1, r24	; 0x01
     29a:	0b c0       	rjmp	.+22     	; 0x2b2 <to_uARM+0x26>
     29c:	89 81       	ldd	r24, Y+1	; 0x01
     29e:	9a 81       	ldd	r25, Y+2	; 0x02
     2a0:	fc 01       	movw	r30, r24
     2a2:	80 81       	ld	r24, Z
     2a4:	0e 94 0a 01 	call	0x214	; 0x214 <send_Byte_1>
     2a8:	89 81       	ldd	r24, Y+1	; 0x01
     2aa:	9a 81       	ldd	r25, Y+2	; 0x02
     2ac:	01 96       	adiw	r24, 0x01	; 1
     2ae:	9a 83       	std	Y+2, r25	; 0x02
     2b0:	89 83       	std	Y+1, r24	; 0x01
     2b2:	89 81       	ldd	r24, Y+1	; 0x01
     2b4:	9a 81       	ldd	r25, Y+2	; 0x02
     2b6:	fc 01       	movw	r30, r24
     2b8:	80 81       	ld	r24, Z
     2ba:	88 23       	and	r24, r24
     2bc:	79 f7       	brne	.-34     	; 0x29c <to_uARM+0x10>
     2be:	10 92 f1 01 	sts	0x01F1, r1	; 0x8001f1 <uart_str_complete1>
     2c2:	00 00       	nop
     2c4:	80 91 f1 01 	lds	r24, 0x01F1	; 0x8001f1 <uart_str_complete1>
     2c8:	88 23       	and	r24, r24
     2ca:	e1 f3       	breq	.-8      	; 0x2c4 <to_uARM+0x38>
     2cc:	00 00       	nop
     2ce:	0f 90       	pop	r0
     2d0:	0f 90       	pop	r0
     2d2:	df 91       	pop	r29
     2d4:	cf 91       	pop	r28
     2d6:	08 95       	ret

000002d8 <send_to_uArm>:
     2d8:	cf 93       	push	r28
     2da:	df 93       	push	r29
     2dc:	00 d0       	rcall	.+0      	; 0x2de <send_to_uArm+0x6>
     2de:	cd b7       	in	r28, 0x3d	; 61
     2e0:	de b7       	in	r29, 0x3e	; 62
     2e2:	9a 83       	std	Y+2, r25	; 0x02
     2e4:	89 83       	std	Y+1, r24	; 0x01
     2e6:	89 81       	ldd	r24, Y+1	; 0x01
     2e8:	9a 81       	ldd	r25, Y+2	; 0x02
     2ea:	0e 94 46 01 	call	0x28c	; 0x28c <to_uARM>
     2ee:	80 e0       	ldi	r24, 0x00	; 0
     2f0:	91 e0       	ldi	r25, 0x01	; 1
     2f2:	0e 94 46 01 	call	0x28c	; 0x28c <to_uARM>
     2f6:	04 c0       	rjmp	.+8      	; 0x300 <send_to_uArm+0x28>
     2f8:	80 e0       	ldi	r24, 0x00	; 0
     2fa:	91 e0       	ldi	r25, 0x01	; 1
     2fc:	0e 94 46 01 	call	0x28c	; 0x28c <to_uARM>
     300:	80 91 f8 01 	lds	r24, 0x01F8	; 0x8001f8 <uart_string1+0x4>
     304:	81 33       	cpi	r24, 0x31	; 49
     306:	c1 f3       	breq	.-16     	; 0x2f8 <send_to_uArm+0x20>
     308:	00 00       	nop
     30a:	0f 90       	pop	r0
     30c:	0f 90       	pop	r0
     30e:	df 91       	pop	r29
     310:	cf 91       	pop	r28
     312:	08 95       	ret

00000314 <__vector_20>:
     314:	1f 92       	push	r1
     316:	0f 92       	push	r0
     318:	00 90 5f 00 	lds	r0, 0x005F	; 0x80005f <__TEXT_REGION_LENGTH__+0x7e005f>
     31c:	0f 92       	push	r0
     31e:	11 24       	eor	r1, r1
     320:	2f 93       	push	r18
     322:	3f 93       	push	r19
     324:	8f 93       	push	r24
     326:	9f 93       	push	r25
     328:	ef 93       	push	r30
     32a:	ff 93       	push	r31
     32c:	cf 93       	push	r28
     32e:	df 93       	push	r29
     330:	00 d0       	rcall	.+0      	; 0x332 <__vector_20+0x1e>
     332:	1f 92       	push	r1
     334:	cd b7       	in	r28, 0x3d	; 61
     336:	de b7       	in	r29, 0x3e	; 62
     338:	1a 82       	std	Y+2, r1	; 0x02
     33a:	86 ec       	ldi	r24, 0xC6	; 198
     33c:	90 e0       	ldi	r25, 0x00	; 0
     33e:	fc 01       	movw	r30, r24
     340:	80 81       	ld	r24, Z
     342:	8b 83       	std	Y+3, r24	; 0x03
     344:	8b 81       	ldd	r24, Y+3	; 0x03
     346:	8a 30       	cpi	r24, 0x0A	; 10
     348:	99 f0       	breq	.+38     	; 0x370 <__vector_20+0x5c>
     34a:	80 91 f3 01 	lds	r24, 0x01F3	; 0x8001f3 <uart_str_count1>
     34e:	82 33       	cpi	r24, 0x32	; 50
     350:	78 f4       	brcc	.+30     	; 0x370 <__vector_20+0x5c>
     352:	80 91 f2 01 	lds	r24, 0x01F2	; 0x8001f2 <data_bytes_recieved>
     356:	88 2f       	mov	r24, r24
     358:	90 e0       	ldi	r25, 0x00	; 0
     35a:	8c 5b       	subi	r24, 0xBC	; 188
     35c:	9d 4f       	sbci	r25, 0xFD	; 253
     35e:	2b 81       	ldd	r18, Y+3	; 0x03
     360:	fc 01       	movw	r30, r24
     362:	20 83       	st	Z, r18
     364:	80 91 f2 01 	lds	r24, 0x01F2	; 0x8001f2 <data_bytes_recieved>
     368:	8f 5f       	subi	r24, 0xFF	; 255
     36a:	80 93 f2 01 	sts	0x01F2, r24	; 0x8001f2 <data_bytes_recieved>
     36e:	1b c0       	rjmp	.+54     	; 0x3a6 <__vector_20+0x92>
     370:	19 82       	std	Y+1, r1	; 0x01
     372:	11 c0       	rjmp	.+34     	; 0x396 <__vector_20+0x82>
     374:	89 81       	ldd	r24, Y+1	; 0x01
     376:	88 2f       	mov	r24, r24
     378:	90 e0       	ldi	r25, 0x00	; 0
     37a:	29 81       	ldd	r18, Y+1	; 0x01
     37c:	22 2f       	mov	r18, r18
     37e:	30 e0       	ldi	r19, 0x00	; 0
     380:	2c 5b       	subi	r18, 0xBC	; 188
     382:	3d 4f       	sbci	r19, 0xFD	; 253
     384:	f9 01       	movw	r30, r18
     386:	20 81       	ld	r18, Z
     388:	8e 5a       	subi	r24, 0xAE	; 174
     38a:	9d 4f       	sbci	r25, 0xFD	; 253
     38c:	fc 01       	movw	r30, r24
     38e:	20 83       	st	Z, r18
     390:	89 81       	ldd	r24, Y+1	; 0x01
     392:	8f 5f       	subi	r24, 0xFF	; 255
     394:	89 83       	std	Y+1, r24	; 0x01
     396:	80 91 f2 01 	lds	r24, 0x01F2	; 0x8001f2 <data_bytes_recieved>
     39a:	99 81       	ldd	r25, Y+1	; 0x01
     39c:	89 17       	cp	r24, r25
     39e:	50 f7       	brcc	.-44     	; 0x374 <__vector_20+0x60>
     3a0:	81 e0       	ldi	r24, 0x01	; 1
     3a2:	80 93 f0 01 	sts	0x01F0, r24	; 0x8001f0 <__data_end>
     3a6:	00 00       	nop
     3a8:	0f 90       	pop	r0
     3aa:	0f 90       	pop	r0
     3ac:	0f 90       	pop	r0
     3ae:	df 91       	pop	r29
     3b0:	cf 91       	pop	r28
     3b2:	ff 91       	pop	r31
     3b4:	ef 91       	pop	r30
     3b6:	9f 91       	pop	r25
     3b8:	8f 91       	pop	r24
     3ba:	3f 91       	pop	r19
     3bc:	2f 91       	pop	r18
     3be:	0f 90       	pop	r0
     3c0:	00 92 5f 00 	sts	0x005F, r0	; 0x80005f <__TEXT_REGION_LENGTH__+0x7e005f>
     3c4:	0f 90       	pop	r0
     3c6:	1f 90       	pop	r1
     3c8:	18 95       	reti

000003ca <__vector_28>:
     3ca:	1f 92       	push	r1
     3cc:	0f 92       	push	r0
     3ce:	00 90 5f 00 	lds	r0, 0x005F	; 0x80005f <__TEXT_REGION_LENGTH__+0x7e005f>
     3d2:	0f 92       	push	r0
     3d4:	11 24       	eor	r1, r1
     3d6:	2f 93       	push	r18
     3d8:	8f 93       	push	r24
     3da:	9f 93       	push	r25
     3dc:	ef 93       	push	r30
     3de:	ff 93       	push	r31
     3e0:	cf 93       	push	r28
     3e2:	df 93       	push	r29
     3e4:	1f 92       	push	r1
     3e6:	cd b7       	in	r28, 0x3d	; 61
     3e8:	de b7       	in	r29, 0x3e	; 62
     3ea:	8e ec       	ldi	r24, 0xCE	; 206
     3ec:	90 e0       	ldi	r25, 0x00	; 0
     3ee:	fc 01       	movw	r30, r24
     3f0:	80 81       	ld	r24, Z
     3f2:	89 83       	std	Y+1, r24	; 0x01
     3f4:	80 91 f1 01 	lds	r24, 0x01F1	; 0x8001f1 <uart_str_complete1>
     3f8:	88 23       	and	r24, r24
     3fa:	31 f5       	brne	.+76     	; 0x448 <__LOCK_REGION_LENGTH__+0x48>
     3fc:	89 81       	ldd	r24, Y+1	; 0x01
     3fe:	8a 30       	cpi	r24, 0x0A	; 10
     400:	b1 f0       	breq	.+44     	; 0x42e <__LOCK_REGION_LENGTH__+0x2e>
     402:	89 81       	ldd	r24, Y+1	; 0x01
     404:	8d 30       	cpi	r24, 0x0D	; 13
     406:	99 f0       	breq	.+38     	; 0x42e <__LOCK_REGION_LENGTH__+0x2e>
     408:	80 91 f3 01 	lds	r24, 0x01F3	; 0x8001f3 <uart_str_count1>
     40c:	82 33       	cpi	r24, 0x32	; 50
     40e:	78 f4       	brcc	.+30     	; 0x42e <__LOCK_REGION_LENGTH__+0x2e>
     410:	80 91 f3 01 	lds	r24, 0x01F3	; 0x8001f3 <uart_str_count1>
     414:	88 2f       	mov	r24, r24
     416:	90 e0       	ldi	r25, 0x00	; 0
     418:	8c 50       	subi	r24, 0x0C	; 12
     41a:	9e 4f       	sbci	r25, 0xFE	; 254
     41c:	29 81       	ldd	r18, Y+1	; 0x01
     41e:	fc 01       	movw	r30, r24
     420:	20 83       	st	Z, r18
     422:	80 91 f3 01 	lds	r24, 0x01F3	; 0x8001f3 <uart_str_count1>
     426:	8f 5f       	subi	r24, 0xFF	; 255
     428:	80 93 f3 01 	sts	0x01F3, r24	; 0x8001f3 <uart_str_count1>
     42c:	0d c0       	rjmp	.+26     	; 0x448 <__LOCK_REGION_LENGTH__+0x48>
     42e:	80 91 f3 01 	lds	r24, 0x01F3	; 0x8001f3 <uart_str_count1>
     432:	88 2f       	mov	r24, r24
     434:	90 e0       	ldi	r25, 0x00	; 0
     436:	8c 50       	subi	r24, 0x0C	; 12
     438:	9e 4f       	sbci	r25, 0xFE	; 254
     43a:	fc 01       	movw	r30, r24
     43c:	10 82       	st	Z, r1
     43e:	10 92 f3 01 	sts	0x01F3, r1	; 0x8001f3 <uart_str_count1>
     442:	81 e0       	ldi	r24, 0x01	; 1
     444:	80 93 f1 01 	sts	0x01F1, r24	; 0x8001f1 <uart_str_complete1>
     448:	00 00       	nop
     44a:	0f 90       	pop	r0
     44c:	df 91       	pop	r29
     44e:	cf 91       	pop	r28
     450:	ff 91       	pop	r31
     452:	ef 91       	pop	r30
     454:	9f 91       	pop	r25
     456:	8f 91       	pop	r24
     458:	2f 91       	pop	r18
     45a:	0f 90       	pop	r0
     45c:	00 92 5f 00 	sts	0x005F, r0	; 0x80005f <__TEXT_REGION_LENGTH__+0x7e005f>
     460:	0f 90       	pop	r0
     462:	1f 90       	pop	r1
     464:	18 95       	reti

00000466 <main>:


int main (void)
{
     466:	cf 92       	push	r12
     468:	ef 92       	push	r14
     46a:	0f 93       	push	r16
     46c:	cf 93       	push	r28
     46e:	df 93       	push	r29
     470:	cd b7       	in	r28, 0x3d	; 61
     472:	de b7       	in	r29, 0x3e	; 62
     474:	c1 55       	subi	r28, 0x51	; 81
     476:	d1 09       	sbc	r29, r1
     478:	0f b6       	in	r0, 0x3f	; 63
     47a:	f8 94       	cli
     47c:	de bf       	out	0x3e, r29	; 62
     47e:	0f be       	out	0x3f, r0	; 63
     480:	cd bf       	out	0x3d, r28	; 61
	init_BT_CAR_V2_0();			// Das Board wird hier initialisiert	
     482:	0e 94 1b 08 	call	0x1036	; 0x1036 <init_BT_CAR_V2_0>
	wait_1ms(1000);	
     486:	68 ee       	ldi	r22, 0xE8	; 232
     488:	73 e0       	ldi	r23, 0x03	; 3
     48a:	80 e0       	ldi	r24, 0x00	; 0
     48c:	90 e0       	ldi	r25, 0x00	; 0
     48e:	0e 94 b2 05 	call	0xb64	; 0xb64 <wait_1ms>
	clear_lcd();				// LCD clear
     492:	0e 94 b8 07 	call	0xf70	; 0xf70 <clear_lcd>
	init_ADC();
     496:	0e 94 8a 00 	call	0x114	; 0x114 <init_ADC>
	init_UART0();
     49a:	0e 94 ad 00 	call	0x15a	; 0x15a <init_UART0>
	init_UART1();
     49e:	0e 94 ce 00 	call	0x19c	; 0x19c <init_UART1>
	unsigned char data_2;
	unsigned char data_3;
	unsigned char x1;
	unsigned char y1;
	unsigned char z1;
	unsigned char alt=0;
     4a2:	1f 82       	std	Y+7, r1	; 0x07
	unsigned char neu=0;
     4a4:	18 86       	std	Y+8, r1	; 0x08
	unsigned int recieved_X;
	unsigned int recieved_Y;
	unsigned int recieved_Z;
	unsigned char buffer [30];
	unsigned char check=0;
     4a6:	1d 82       	std	Y+5, r1	; 0x05
	unsigned char counter=0;
     4a8:	1e 82       	std	Y+6, r1	; 0x06
	
	send_to_uArm("G0 X100 Y000 Z100 F1000\n");
     4aa:	89 ea       	ldi	r24, 0xA9	; 169
     4ac:	91 e0       	ldi	r25, 0x01	; 1
     4ae:	0e 94 6c 01 	call	0x2d8	; 0x2d8 <send_to_uArm>
	clear_lcd();
     4b2:	0e 94 b8 07 	call	0xf70	; 0xf70 <clear_lcd>
	while(1)
	{
	//	direction=get_direction();
		taster = get_LCD_Taster();
     4b6:	0e 94 5d 00 	call	0xba	; 0xba <get_LCD_Taster>
     4ba:	89 87       	std	Y+9, r24	; 0x09
		if (taster&0x08)
     4bc:	89 85       	ldd	r24, Y+9	; 0x09
     4be:	88 2f       	mov	r24, r24
     4c0:	90 e0       	ldi	r25, 0x00	; 0
     4c2:	88 70       	andi	r24, 0x08	; 8
     4c4:	99 27       	eor	r25, r25
     4c6:	89 2b       	or	r24, r25
     4c8:	21 f0       	breq	.+8      	; 0x4d2 <main+0x6c>
		{
			send_to_uArm("G0 X170 Y0 Z160 F1000\n");			//ausgansgpkt
     4ca:	82 ec       	ldi	r24, 0xC2	; 194
     4cc:	91 e0       	ldi	r25, 0x01	; 1
     4ce:	0e 94 6c 01 	call	0x2d8	; 0x2d8 <send_to_uArm>
		}
		write_zahl(0,0,taster,3,0,0);
     4d2:	89 85       	ldd	r24, Y+9	; 0x09
     4d4:	88 2f       	mov	r24, r24
     4d6:	90 e0       	ldi	r25, 0x00	; 0
     4d8:	a0 e0       	ldi	r26, 0x00	; 0
     4da:	b0 e0       	ldi	r27, 0x00	; 0
     4dc:	c1 2c       	mov	r12, r1
     4de:	e1 2c       	mov	r14, r1
     4e0:	03 e0       	ldi	r16, 0x03	; 3
     4e2:	9c 01       	movw	r18, r24
     4e4:	ad 01       	movw	r20, r26
     4e6:	60 e0       	ldi	r22, 0x00	; 0
     4e8:	80 e0       	ldi	r24, 0x00	; 0
     4ea:	0e 94 7b 06 	call	0xcf6	; 0xcf6 <write_zahl>
		write_zahl(1,0,check,3,0,0);
     4ee:	8d 81       	ldd	r24, Y+5	; 0x05
     4f0:	88 2f       	mov	r24, r24
     4f2:	90 e0       	ldi	r25, 0x00	; 0
     4f4:	a0 e0       	ldi	r26, 0x00	; 0
     4f6:	b0 e0       	ldi	r27, 0x00	; 0
     4f8:	c1 2c       	mov	r12, r1
     4fa:	e1 2c       	mov	r14, r1
     4fc:	03 e0       	ldi	r16, 0x03	; 3
     4fe:	9c 01       	movw	r18, r24
     500:	ad 01       	movw	r20, r26
     502:	60 e0       	ldi	r22, 0x00	; 0
     504:	81 e0       	ldi	r24, 0x01	; 1
     506:	0e 94 7b 06 	call	0xcf6	; 0xcf6 <write_zahl>
			if (uart_str_complete!=0)
     50a:	80 91 f0 01 	lds	r24, 0x01F0	; 0x8001f0 <__data_end>
     50e:	88 23       	and	r24, r24
     510:	09 f4       	brne	.+2      	; 0x514 <main+0xae>
     512:	36 c2       	rjmp	.+1132   	; 0x980 <main+0x51a>
			{
				uart_str_complete=0;
     514:	10 92 f0 01 	sts	0x01F0, r1	; 0x8001f0 <__data_end>
				send_Byte_0('1');
     518:	81 e3       	ldi	r24, 0x31	; 49
     51a:	0e 94 ef 00 	call	0x1de	; 0x1de <send_Byte_0>
     51e:	80 e0       	ldi	r24, 0x00	; 0
     520:	90 e0       	ldi	r25, 0x00	; 0
     522:	a8 ec       	ldi	r26, 0xC8	; 200
     524:	b2 e4       	ldi	r27, 0x42	; 66
     526:	8a 8b       	std	Y+18, r24	; 0x12
     528:	9b 8b       	std	Y+19, r25	; 0x13
     52a:	ac 8b       	std	Y+20, r26	; 0x14
     52c:	bd 8b       	std	Y+21, r27	; 0x15

	__builtin_avr_delay_cycles(__ticks_dc);

#else
	uint16_t __ticks;
	__tmp = ((F_CPU) / 4e3) * __ms;
     52e:	20 e0       	ldi	r18, 0x00	; 0
     530:	30 e0       	ldi	r19, 0x00	; 0
     532:	4a e7       	ldi	r20, 0x7A	; 122
     534:	53 e4       	ldi	r21, 0x43	; 67
     536:	6a 89       	ldd	r22, Y+18	; 0x12
     538:	7b 89       	ldd	r23, Y+19	; 0x13
     53a:	8c 89       	ldd	r24, Y+20	; 0x14
     53c:	9d 89       	ldd	r25, Y+21	; 0x15
     53e:	0e 94 bf 08 	call	0x117e	; 0x117e <__mulsf3>
     542:	dc 01       	movw	r26, r24
     544:	cb 01       	movw	r24, r22
     546:	8e 8b       	std	Y+22, r24	; 0x16
     548:	9f 8b       	std	Y+23, r25	; 0x17
     54a:	a8 8f       	std	Y+24, r26	; 0x18
     54c:	b9 8f       	std	Y+25, r27	; 0x19
	if (__tmp < 1.0)
     54e:	20 e0       	ldi	r18, 0x00	; 0
     550:	30 e0       	ldi	r19, 0x00	; 0
     552:	40 e8       	ldi	r20, 0x80	; 128
     554:	5f e3       	ldi	r21, 0x3F	; 63
     556:	6e 89       	ldd	r22, Y+22	; 0x16
     558:	7f 89       	ldd	r23, Y+23	; 0x17
     55a:	88 8d       	ldd	r24, Y+24	; 0x18
     55c:	99 8d       	ldd	r25, Y+25	; 0x19
     55e:	0e 94 39 08 	call	0x1072	; 0x1072 <__cmpsf2>
     562:	88 23       	and	r24, r24
     564:	2c f4       	brge	.+10     	; 0x570 <main+0x10a>
		__ticks = 1;
     566:	81 e0       	ldi	r24, 0x01	; 1
     568:	90 e0       	ldi	r25, 0x00	; 0
     56a:	9b 8f       	std	Y+27, r25	; 0x1b
     56c:	8a 8f       	std	Y+26, r24	; 0x1a
     56e:	3f c0       	rjmp	.+126    	; 0x5ee <main+0x188>
	else if (__tmp > 65535)
     570:	20 e0       	ldi	r18, 0x00	; 0
     572:	3f ef       	ldi	r19, 0xFF	; 255
     574:	4f e7       	ldi	r20, 0x7F	; 127
     576:	57 e4       	ldi	r21, 0x47	; 71
     578:	6e 89       	ldd	r22, Y+22	; 0x16
     57a:	7f 89       	ldd	r23, Y+23	; 0x17
     57c:	88 8d       	ldd	r24, Y+24	; 0x18
     57e:	99 8d       	ldd	r25, Y+25	; 0x19
     580:	0e 94 ba 08 	call	0x1174	; 0x1174 <__gesf2>
     584:	18 16       	cp	r1, r24
     586:	4c f5       	brge	.+82     	; 0x5da <main+0x174>
	{
		//	__ticks = requested delay in 1/10 ms
		__ticks = (uint16_t) (__ms * 10.0);
     588:	20 e0       	ldi	r18, 0x00	; 0
     58a:	30 e0       	ldi	r19, 0x00	; 0
     58c:	40 e2       	ldi	r20, 0x20	; 32
     58e:	51 e4       	ldi	r21, 0x41	; 65
     590:	6a 89       	ldd	r22, Y+18	; 0x12
     592:	7b 89       	ldd	r23, Y+19	; 0x13
     594:	8c 89       	ldd	r24, Y+20	; 0x14
     596:	9d 89       	ldd	r25, Y+21	; 0x15
     598:	0e 94 bf 08 	call	0x117e	; 0x117e <__mulsf3>
     59c:	dc 01       	movw	r26, r24
     59e:	cb 01       	movw	r24, r22
     5a0:	bc 01       	movw	r22, r24
     5a2:	cd 01       	movw	r24, r26
     5a4:	0e 94 3e 08 	call	0x107c	; 0x107c <__fixunssfsi>
     5a8:	dc 01       	movw	r26, r24
     5aa:	cb 01       	movw	r24, r22
     5ac:	9b 8f       	std	Y+27, r25	; 0x1b
     5ae:	8a 8f       	std	Y+26, r24	; 0x1a
     5b0:	0f c0       	rjmp	.+30     	; 0x5d0 <main+0x16a>
     5b2:	89 e1       	ldi	r24, 0x19	; 25
     5b4:	90 e0       	ldi	r25, 0x00	; 0
     5b6:	9d 8f       	std	Y+29, r25	; 0x1d
     5b8:	8c 8f       	std	Y+28, r24	; 0x1c
    milliseconds can be achieved.
 */
void
_delay_loop_2(uint16_t __count)
{
	__asm__ volatile (
     5ba:	8c 8d       	ldd	r24, Y+28	; 0x1c
     5bc:	9d 8d       	ldd	r25, Y+29	; 0x1d
     5be:	01 97       	sbiw	r24, 0x01	; 1
     5c0:	f1 f7       	brne	.-4      	; 0x5be <main+0x158>
     5c2:	9d 8f       	std	Y+29, r25	; 0x1d
     5c4:	8c 8f       	std	Y+28, r24	; 0x1c
		while(__ticks)
		{
			// wait 1/10 ms
			_delay_loop_2(((F_CPU) / 4e3) / 10);
			__ticks --;
     5c6:	8a 8d       	ldd	r24, Y+26	; 0x1a
     5c8:	9b 8d       	ldd	r25, Y+27	; 0x1b
     5ca:	01 97       	sbiw	r24, 0x01	; 1
     5cc:	9b 8f       	std	Y+27, r25	; 0x1b
     5ce:	8a 8f       	std	Y+26, r24	; 0x1a
		__ticks = 1;
	else if (__tmp > 65535)
	{
		//	__ticks = requested delay in 1/10 ms
		__ticks = (uint16_t) (__ms * 10.0);
		while(__ticks)
     5d0:	8a 8d       	ldd	r24, Y+26	; 0x1a
     5d2:	9b 8d       	ldd	r25, Y+27	; 0x1b
     5d4:	89 2b       	or	r24, r25
     5d6:	69 f7       	brne	.-38     	; 0x5b2 <main+0x14c>
     5d8:	14 c0       	rjmp	.+40     	; 0x602 <main+0x19c>
			__ticks --;
		}
		return;
	}
	else
		__ticks = (uint16_t)__tmp;
     5da:	6e 89       	ldd	r22, Y+22	; 0x16
     5dc:	7f 89       	ldd	r23, Y+23	; 0x17
     5de:	88 8d       	ldd	r24, Y+24	; 0x18
     5e0:	99 8d       	ldd	r25, Y+25	; 0x19
     5e2:	0e 94 3e 08 	call	0x107c	; 0x107c <__fixunssfsi>
     5e6:	dc 01       	movw	r26, r24
     5e8:	cb 01       	movw	r24, r22
     5ea:	9b 8f       	std	Y+27, r25	; 0x1b
     5ec:	8a 8f       	std	Y+26, r24	; 0x1a
     5ee:	8a 8d       	ldd	r24, Y+26	; 0x1a
     5f0:	9b 8d       	ldd	r25, Y+27	; 0x1b
     5f2:	9f 8f       	std	Y+31, r25	; 0x1f
     5f4:	8e 8f       	std	Y+30, r24	; 0x1e
     5f6:	8e 8d       	ldd	r24, Y+30	; 0x1e
     5f8:	9f 8d       	ldd	r25, Y+31	; 0x1f
     5fa:	01 97       	sbiw	r24, 0x01	; 1
     5fc:	f1 f7       	brne	.-4      	; 0x5fa <main+0x194>
     5fe:	9f 8f       	std	Y+31, r25	; 0x1f
     600:	8e 8f       	std	Y+30, r24	; 0x1e
				_delay_ms(100);
				
				for (counter=0;counter<=data_bytes_recieved;counter++)
     602:	1e 82       	std	Y+6, r1	; 0x06
     604:	a6 c1       	rjmp	.+844    	; 0x952 <main+0x4ec>
				{
					switch (final_data[counter])//final data decoding
     606:	8e 81       	ldd	r24, Y+6	; 0x06
     608:	88 2f       	mov	r24, r24
     60a:	90 e0       	ldi	r25, 0x00	; 0
     60c:	8e 5a       	subi	r24, 0xAE	; 174
     60e:	9d 4f       	sbci	r25, 0xFD	; 253
     610:	fc 01       	movw	r30, r24
     612:	80 81       	ld	r24, Z
     614:	88 2f       	mov	r24, r24
     616:	90 e0       	ldi	r25, 0x00	; 0
     618:	88 35       	cpi	r24, 0x58	; 88
     61a:	91 05       	cpc	r25, r1
     61c:	29 f0       	breq	.+10     	; 0x628 <main+0x1c2>
     61e:	89 35       	cpi	r24, 0x59	; 89
     620:	91 05       	cpc	r25, r1
     622:	09 f4       	brne	.+2      	; 0x626 <main+0x1c0>
     624:	ca c0       	rjmp	.+404    	; 0x7ba <main+0x354>
     626:	92 c1       	rjmp	.+804    	; 0x94c <main+0x4e6>
					{
						case 'X':
							recieved_X=(final_data[counter+1]-48)*1000+(final_data[counter+2]-48)*100+(final_data[counter+3]-48)*10+final_data[counter+4]-48;
     628:	8e 81       	ldd	r24, Y+6	; 0x06
     62a:	88 2f       	mov	r24, r24
     62c:	90 e0       	ldi	r25, 0x00	; 0
     62e:	01 96       	adiw	r24, 0x01	; 1
     630:	8e 5a       	subi	r24, 0xAE	; 174
     632:	9d 4f       	sbci	r25, 0xFD	; 253
     634:	fc 01       	movw	r30, r24
     636:	80 81       	ld	r24, Z
     638:	88 2f       	mov	r24, r24
     63a:	90 e0       	ldi	r25, 0x00	; 0
     63c:	ac 01       	movw	r20, r24
     63e:	40 53       	subi	r20, 0x30	; 48
     640:	51 09       	sbc	r21, r1
     642:	88 ee       	ldi	r24, 0xE8	; 232
     644:	93 e0       	ldi	r25, 0x03	; 3
     646:	48 9f       	mul	r20, r24
     648:	90 01       	movw	r18, r0
     64a:	49 9f       	mul	r20, r25
     64c:	30 0d       	add	r19, r0
     64e:	58 9f       	mul	r21, r24
     650:	30 0d       	add	r19, r0
     652:	11 24       	eor	r1, r1
     654:	8e 81       	ldd	r24, Y+6	; 0x06
     656:	88 2f       	mov	r24, r24
     658:	90 e0       	ldi	r25, 0x00	; 0
     65a:	02 96       	adiw	r24, 0x02	; 2
     65c:	8e 5a       	subi	r24, 0xAE	; 174
     65e:	9d 4f       	sbci	r25, 0xFD	; 253
     660:	fc 01       	movw	r30, r24
     662:	80 81       	ld	r24, Z
     664:	88 2f       	mov	r24, r24
     666:	90 e0       	ldi	r25, 0x00	; 0
     668:	ac 01       	movw	r20, r24
     66a:	40 53       	subi	r20, 0x30	; 48
     66c:	51 09       	sbc	r21, r1
     66e:	64 e6       	ldi	r22, 0x64	; 100
     670:	64 9f       	mul	r22, r20
     672:	c0 01       	movw	r24, r0
     674:	65 9f       	mul	r22, r21
     676:	90 0d       	add	r25, r0
     678:	11 24       	eor	r1, r1
     67a:	28 0f       	add	r18, r24
     67c:	39 1f       	adc	r19, r25
     67e:	8e 81       	ldd	r24, Y+6	; 0x06
     680:	88 2f       	mov	r24, r24
     682:	90 e0       	ldi	r25, 0x00	; 0
     684:	03 96       	adiw	r24, 0x03	; 3
     686:	8e 5a       	subi	r24, 0xAE	; 174
     688:	9d 4f       	sbci	r25, 0xFD	; 253
     68a:	fc 01       	movw	r30, r24
     68c:	80 81       	ld	r24, Z
     68e:	88 2f       	mov	r24, r24
     690:	90 e0       	ldi	r25, 0x00	; 0
     692:	c0 97       	sbiw	r24, 0x30	; 48
     694:	88 0f       	add	r24, r24
     696:	99 1f       	adc	r25, r25
     698:	ac 01       	movw	r20, r24
     69a:	44 0f       	add	r20, r20
     69c:	55 1f       	adc	r21, r21
     69e:	44 0f       	add	r20, r20
     6a0:	55 1f       	adc	r21, r21
     6a2:	84 0f       	add	r24, r20
     6a4:	95 1f       	adc	r25, r21
     6a6:	28 0f       	add	r18, r24
     6a8:	39 1f       	adc	r19, r25
     6aa:	8e 81       	ldd	r24, Y+6	; 0x06
     6ac:	88 2f       	mov	r24, r24
     6ae:	90 e0       	ldi	r25, 0x00	; 0
     6b0:	04 96       	adiw	r24, 0x04	; 4
     6b2:	8e 5a       	subi	r24, 0xAE	; 174
     6b4:	9d 4f       	sbci	r25, 0xFD	; 253
     6b6:	fc 01       	movw	r30, r24
     6b8:	80 81       	ld	r24, Z
     6ba:	88 2f       	mov	r24, r24
     6bc:	90 e0       	ldi	r25, 0x00	; 0
     6be:	82 0f       	add	r24, r18
     6c0:	93 1f       	adc	r25, r19
     6c2:	c0 97       	sbiw	r24, 0x30	; 48
     6c4:	9a 83       	std	Y+2, r25	; 0x02
     6c6:	89 83       	std	Y+1, r24	; 0x01
							send_Byte_0('1');
     6c8:	81 e3       	ldi	r24, 0x31	; 49
     6ca:	0e 94 ef 00 	call	0x1de	; 0x1de <send_Byte_0>
     6ce:	80 e0       	ldi	r24, 0x00	; 0
     6d0:	90 e0       	ldi	r25, 0x00	; 0
     6d2:	a8 ec       	ldi	r26, 0xC8	; 200
     6d4:	b2 e4       	ldi	r27, 0x42	; 66
     6d6:	8a 87       	std	Y+10, r24	; 0x0a
     6d8:	9b 87       	std	Y+11, r25	; 0x0b
     6da:	ac 87       	std	Y+12, r26	; 0x0c
     6dc:	bd 87       	std	Y+13, r27	; 0x0d

	__builtin_avr_delay_cycles(__ticks_dc);

#else
	uint16_t __ticks;
	__tmp = ((F_CPU) / 4e3) * __ms;
     6de:	20 e0       	ldi	r18, 0x00	; 0
     6e0:	30 e0       	ldi	r19, 0x00	; 0
     6e2:	4a e7       	ldi	r20, 0x7A	; 122
     6e4:	53 e4       	ldi	r21, 0x43	; 67
     6e6:	6a 85       	ldd	r22, Y+10	; 0x0a
     6e8:	7b 85       	ldd	r23, Y+11	; 0x0b
     6ea:	8c 85       	ldd	r24, Y+12	; 0x0c
     6ec:	9d 85       	ldd	r25, Y+13	; 0x0d
     6ee:	0e 94 bf 08 	call	0x117e	; 0x117e <__mulsf3>
     6f2:	dc 01       	movw	r26, r24
     6f4:	cb 01       	movw	r24, r22
     6f6:	88 a3       	std	Y+32, r24	; 0x20
     6f8:	99 a3       	std	Y+33, r25	; 0x21
     6fa:	aa a3       	std	Y+34, r26	; 0x22
     6fc:	bb a3       	std	Y+35, r27	; 0x23
	if (__tmp < 1.0)
     6fe:	20 e0       	ldi	r18, 0x00	; 0
     700:	30 e0       	ldi	r19, 0x00	; 0
     702:	40 e8       	ldi	r20, 0x80	; 128
     704:	5f e3       	ldi	r21, 0x3F	; 63
     706:	68 a1       	ldd	r22, Y+32	; 0x20
     708:	79 a1       	ldd	r23, Y+33	; 0x21
     70a:	8a a1       	ldd	r24, Y+34	; 0x22
     70c:	9b a1       	ldd	r25, Y+35	; 0x23
     70e:	0e 94 39 08 	call	0x1072	; 0x1072 <__cmpsf2>
     712:	88 23       	and	r24, r24
     714:	2c f4       	brge	.+10     	; 0x720 <main+0x2ba>
		__ticks = 1;
     716:	81 e0       	ldi	r24, 0x01	; 1
     718:	90 e0       	ldi	r25, 0x00	; 0
     71a:	9d a3       	std	Y+37, r25	; 0x25
     71c:	8c a3       	std	Y+36, r24	; 0x24
     71e:	3f c0       	rjmp	.+126    	; 0x79e <main+0x338>
	else if (__tmp > 65535)
     720:	20 e0       	ldi	r18, 0x00	; 0
     722:	3f ef       	ldi	r19, 0xFF	; 255
     724:	4f e7       	ldi	r20, 0x7F	; 127
     726:	57 e4       	ldi	r21, 0x47	; 71
     728:	68 a1       	ldd	r22, Y+32	; 0x20
     72a:	79 a1       	ldd	r23, Y+33	; 0x21
     72c:	8a a1       	ldd	r24, Y+34	; 0x22
     72e:	9b a1       	ldd	r25, Y+35	; 0x23
     730:	0e 94 ba 08 	call	0x1174	; 0x1174 <__gesf2>
     734:	18 16       	cp	r1, r24
     736:	4c f5       	brge	.+82     	; 0x78a <main+0x324>
	{
		//	__ticks = requested delay in 1/10 ms
		__ticks = (uint16_t) (__ms * 10.0);
     738:	20 e0       	ldi	r18, 0x00	; 0
     73a:	30 e0       	ldi	r19, 0x00	; 0
     73c:	40 e2       	ldi	r20, 0x20	; 32
     73e:	51 e4       	ldi	r21, 0x41	; 65
     740:	6a 85       	ldd	r22, Y+10	; 0x0a
     742:	7b 85       	ldd	r23, Y+11	; 0x0b
     744:	8c 85       	ldd	r24, Y+12	; 0x0c
     746:	9d 85       	ldd	r25, Y+13	; 0x0d
     748:	0e 94 bf 08 	call	0x117e	; 0x117e <__mulsf3>
     74c:	dc 01       	movw	r26, r24
     74e:	cb 01       	movw	r24, r22
     750:	bc 01       	movw	r22, r24
     752:	cd 01       	movw	r24, r26
     754:	0e 94 3e 08 	call	0x107c	; 0x107c <__fixunssfsi>
     758:	dc 01       	movw	r26, r24
     75a:	cb 01       	movw	r24, r22
     75c:	9d a3       	std	Y+37, r25	; 0x25
     75e:	8c a3       	std	Y+36, r24	; 0x24
     760:	0f c0       	rjmp	.+30     	; 0x780 <main+0x31a>
     762:	89 e1       	ldi	r24, 0x19	; 25
     764:	90 e0       	ldi	r25, 0x00	; 0
     766:	9f a3       	std	Y+39, r25	; 0x27
     768:	8e a3       	std	Y+38, r24	; 0x26
     76a:	8e a1       	ldd	r24, Y+38	; 0x26
     76c:	9f a1       	ldd	r25, Y+39	; 0x27
     76e:	01 97       	sbiw	r24, 0x01	; 1
     770:	f1 f7       	brne	.-4      	; 0x76e <main+0x308>
     772:	9f a3       	std	Y+39, r25	; 0x27
     774:	8e a3       	std	Y+38, r24	; 0x26
		while(__ticks)
		{
			// wait 1/10 ms
			_delay_loop_2(((F_CPU) / 4e3) / 10);
			__ticks --;
     776:	8c a1       	ldd	r24, Y+36	; 0x24
     778:	9d a1       	ldd	r25, Y+37	; 0x25
     77a:	01 97       	sbiw	r24, 0x01	; 1
     77c:	9d a3       	std	Y+37, r25	; 0x25
     77e:	8c a3       	std	Y+36, r24	; 0x24
		__ticks = 1;
	else if (__tmp > 65535)
	{
		//	__ticks = requested delay in 1/10 ms
		__ticks = (uint16_t) (__ms * 10.0);
		while(__ticks)
     780:	8c a1       	ldd	r24, Y+36	; 0x24
     782:	9d a1       	ldd	r25, Y+37	; 0x25
     784:	89 2b       	or	r24, r25
     786:	69 f7       	brne	.-38     	; 0x762 <main+0x2fc>
     788:	14 c0       	rjmp	.+40     	; 0x7b2 <main+0x34c>
			__ticks --;
		}
		return;
	}
	else
		__ticks = (uint16_t)__tmp;
     78a:	68 a1       	ldd	r22, Y+32	; 0x20
     78c:	79 a1       	ldd	r23, Y+33	; 0x21
     78e:	8a a1       	ldd	r24, Y+34	; 0x22
     790:	9b a1       	ldd	r25, Y+35	; 0x23
     792:	0e 94 3e 08 	call	0x107c	; 0x107c <__fixunssfsi>
     796:	dc 01       	movw	r26, r24
     798:	cb 01       	movw	r24, r22
     79a:	9d a3       	std	Y+37, r25	; 0x25
     79c:	8c a3       	std	Y+36, r24	; 0x24
     79e:	8c a1       	ldd	r24, Y+36	; 0x24
     7a0:	9d a1       	ldd	r25, Y+37	; 0x25
     7a2:	99 a7       	std	Y+41, r25	; 0x29
     7a4:	88 a7       	std	Y+40, r24	; 0x28
     7a6:	88 a5       	ldd	r24, Y+40	; 0x28
     7a8:	99 a5       	ldd	r25, Y+41	; 0x29
     7aa:	01 97       	sbiw	r24, 0x01	; 1
     7ac:	f1 f7       	brne	.-4      	; 0x7aa <main+0x344>
     7ae:	99 a7       	std	Y+41, r25	; 0x29
     7b0:	88 a7       	std	Y+40, r24	; 0x28
							_delay_ms(100);
							check++;
     7b2:	8d 81       	ldd	r24, Y+5	; 0x05
     7b4:	8f 5f       	subi	r24, 0xFF	; 255
     7b6:	8d 83       	std	Y+5, r24	; 0x05
						break;
     7b8:	c9 c0       	rjmp	.+402    	; 0x94c <main+0x4e6>
				
						case 'Y':
							recieved_Y=(final_data[counter+1]-48)*1000+(final_data[counter+2]-48)*100+(final_data[counter+3]-48)*10+final_data[counter+4]-48;
     7ba:	8e 81       	ldd	r24, Y+6	; 0x06
     7bc:	88 2f       	mov	r24, r24
     7be:	90 e0       	ldi	r25, 0x00	; 0
     7c0:	01 96       	adiw	r24, 0x01	; 1
     7c2:	8e 5a       	subi	r24, 0xAE	; 174
     7c4:	9d 4f       	sbci	r25, 0xFD	; 253
     7c6:	fc 01       	movw	r30, r24
     7c8:	80 81       	ld	r24, Z
     7ca:	88 2f       	mov	r24, r24
     7cc:	90 e0       	ldi	r25, 0x00	; 0
     7ce:	ac 01       	movw	r20, r24
     7d0:	40 53       	subi	r20, 0x30	; 48
     7d2:	51 09       	sbc	r21, r1
     7d4:	88 ee       	ldi	r24, 0xE8	; 232
     7d6:	93 e0       	ldi	r25, 0x03	; 3
     7d8:	48 9f       	mul	r20, r24
     7da:	90 01       	movw	r18, r0
     7dc:	49 9f       	mul	r20, r25
     7de:	30 0d       	add	r19, r0
     7e0:	58 9f       	mul	r21, r24
     7e2:	30 0d       	add	r19, r0
     7e4:	11 24       	eor	r1, r1
     7e6:	8e 81       	ldd	r24, Y+6	; 0x06
     7e8:	88 2f       	mov	r24, r24
     7ea:	90 e0       	ldi	r25, 0x00	; 0
     7ec:	02 96       	adiw	r24, 0x02	; 2
     7ee:	8e 5a       	subi	r24, 0xAE	; 174
     7f0:	9d 4f       	sbci	r25, 0xFD	; 253
     7f2:	fc 01       	movw	r30, r24
     7f4:	80 81       	ld	r24, Z
     7f6:	88 2f       	mov	r24, r24
     7f8:	90 e0       	ldi	r25, 0x00	; 0
     7fa:	ac 01       	movw	r20, r24
     7fc:	40 53       	subi	r20, 0x30	; 48
     7fe:	51 09       	sbc	r21, r1
     800:	64 e6       	ldi	r22, 0x64	; 100
     802:	64 9f       	mul	r22, r20
     804:	c0 01       	movw	r24, r0
     806:	65 9f       	mul	r22, r21
     808:	90 0d       	add	r25, r0
     80a:	11 24       	eor	r1, r1
     80c:	28 0f       	add	r18, r24
     80e:	39 1f       	adc	r19, r25
     810:	8e 81       	ldd	r24, Y+6	; 0x06
     812:	88 2f       	mov	r24, r24
     814:	90 e0       	ldi	r25, 0x00	; 0
     816:	03 96       	adiw	r24, 0x03	; 3
     818:	8e 5a       	subi	r24, 0xAE	; 174
     81a:	9d 4f       	sbci	r25, 0xFD	; 253
     81c:	fc 01       	movw	r30, r24
     81e:	80 81       	ld	r24, Z
     820:	88 2f       	mov	r24, r24
     822:	90 e0       	ldi	r25, 0x00	; 0
     824:	c0 97       	sbiw	r24, 0x30	; 48
     826:	88 0f       	add	r24, r24
     828:	99 1f       	adc	r25, r25
     82a:	ac 01       	movw	r20, r24
     82c:	44 0f       	add	r20, r20
     82e:	55 1f       	adc	r21, r21
     830:	44 0f       	add	r20, r20
     832:	55 1f       	adc	r21, r21
     834:	84 0f       	add	r24, r20
     836:	95 1f       	adc	r25, r21
     838:	28 0f       	add	r18, r24
     83a:	39 1f       	adc	r19, r25
     83c:	8e 81       	ldd	r24, Y+6	; 0x06
     83e:	88 2f       	mov	r24, r24
     840:	90 e0       	ldi	r25, 0x00	; 0
     842:	04 96       	adiw	r24, 0x04	; 4
     844:	8e 5a       	subi	r24, 0xAE	; 174
     846:	9d 4f       	sbci	r25, 0xFD	; 253
     848:	fc 01       	movw	r30, r24
     84a:	80 81       	ld	r24, Z
     84c:	88 2f       	mov	r24, r24
     84e:	90 e0       	ldi	r25, 0x00	; 0
     850:	82 0f       	add	r24, r18
     852:	93 1f       	adc	r25, r19
     854:	c0 97       	sbiw	r24, 0x30	; 48
     856:	9c 83       	std	Y+4, r25	; 0x04
     858:	8b 83       	std	Y+3, r24	; 0x03
							send_Byte_0('1');
     85a:	81 e3       	ldi	r24, 0x31	; 49
     85c:	0e 94 ef 00 	call	0x1de	; 0x1de <send_Byte_0>
     860:	80 e0       	ldi	r24, 0x00	; 0
     862:	90 e0       	ldi	r25, 0x00	; 0
     864:	a8 ec       	ldi	r26, 0xC8	; 200
     866:	b2 e4       	ldi	r27, 0x42	; 66
     868:	8e 87       	std	Y+14, r24	; 0x0e
     86a:	9f 87       	std	Y+15, r25	; 0x0f
     86c:	a8 8b       	std	Y+16, r26	; 0x10
     86e:	b9 8b       	std	Y+17, r27	; 0x11

	__builtin_avr_delay_cycles(__ticks_dc);

#else
	uint16_t __ticks;
	__tmp = ((F_CPU) / 4e3) * __ms;
     870:	20 e0       	ldi	r18, 0x00	; 0
     872:	30 e0       	ldi	r19, 0x00	; 0
     874:	4a e7       	ldi	r20, 0x7A	; 122
     876:	53 e4       	ldi	r21, 0x43	; 67
     878:	6e 85       	ldd	r22, Y+14	; 0x0e
     87a:	7f 85       	ldd	r23, Y+15	; 0x0f
     87c:	88 89       	ldd	r24, Y+16	; 0x10
     87e:	99 89       	ldd	r25, Y+17	; 0x11
     880:	0e 94 bf 08 	call	0x117e	; 0x117e <__mulsf3>
     884:	dc 01       	movw	r26, r24
     886:	cb 01       	movw	r24, r22
     888:	8a a7       	std	Y+42, r24	; 0x2a
     88a:	9b a7       	std	Y+43, r25	; 0x2b
     88c:	ac a7       	std	Y+44, r26	; 0x2c
     88e:	bd a7       	std	Y+45, r27	; 0x2d
	if (__tmp < 1.0)
     890:	20 e0       	ldi	r18, 0x00	; 0
     892:	30 e0       	ldi	r19, 0x00	; 0
     894:	40 e8       	ldi	r20, 0x80	; 128
     896:	5f e3       	ldi	r21, 0x3F	; 63
     898:	6a a5       	ldd	r22, Y+42	; 0x2a
     89a:	7b a5       	ldd	r23, Y+43	; 0x2b
     89c:	8c a5       	ldd	r24, Y+44	; 0x2c
     89e:	9d a5       	ldd	r25, Y+45	; 0x2d
     8a0:	0e 94 39 08 	call	0x1072	; 0x1072 <__cmpsf2>
     8a4:	88 23       	and	r24, r24
     8a6:	2c f4       	brge	.+10     	; 0x8b2 <main+0x44c>
		__ticks = 1;
     8a8:	81 e0       	ldi	r24, 0x01	; 1
     8aa:	90 e0       	ldi	r25, 0x00	; 0
     8ac:	9f a7       	std	Y+47, r25	; 0x2f
     8ae:	8e a7       	std	Y+46, r24	; 0x2e
     8b0:	3f c0       	rjmp	.+126    	; 0x930 <main+0x4ca>
	else if (__tmp > 65535)
     8b2:	20 e0       	ldi	r18, 0x00	; 0
     8b4:	3f ef       	ldi	r19, 0xFF	; 255
     8b6:	4f e7       	ldi	r20, 0x7F	; 127
     8b8:	57 e4       	ldi	r21, 0x47	; 71
     8ba:	6a a5       	ldd	r22, Y+42	; 0x2a
     8bc:	7b a5       	ldd	r23, Y+43	; 0x2b
     8be:	8c a5       	ldd	r24, Y+44	; 0x2c
     8c0:	9d a5       	ldd	r25, Y+45	; 0x2d
     8c2:	0e 94 ba 08 	call	0x1174	; 0x1174 <__gesf2>
     8c6:	18 16       	cp	r1, r24
     8c8:	4c f5       	brge	.+82     	; 0x91c <main+0x4b6>
	{
		//	__ticks = requested delay in 1/10 ms
		__ticks = (uint16_t) (__ms * 10.0);
     8ca:	20 e0       	ldi	r18, 0x00	; 0
     8cc:	30 e0       	ldi	r19, 0x00	; 0
     8ce:	40 e2       	ldi	r20, 0x20	; 32
     8d0:	51 e4       	ldi	r21, 0x41	; 65
     8d2:	6e 85       	ldd	r22, Y+14	; 0x0e
     8d4:	7f 85       	ldd	r23, Y+15	; 0x0f
     8d6:	88 89       	ldd	r24, Y+16	; 0x10
     8d8:	99 89       	ldd	r25, Y+17	; 0x11
     8da:	0e 94 bf 08 	call	0x117e	; 0x117e <__mulsf3>
     8de:	dc 01       	movw	r26, r24
     8e0:	cb 01       	movw	r24, r22
     8e2:	bc 01       	movw	r22, r24
     8e4:	cd 01       	movw	r24, r26
     8e6:	0e 94 3e 08 	call	0x107c	; 0x107c <__fixunssfsi>
     8ea:	dc 01       	movw	r26, r24
     8ec:	cb 01       	movw	r24, r22
     8ee:	9f a7       	std	Y+47, r25	; 0x2f
     8f0:	8e a7       	std	Y+46, r24	; 0x2e
     8f2:	0f c0       	rjmp	.+30     	; 0x912 <main+0x4ac>
     8f4:	89 e1       	ldi	r24, 0x19	; 25
     8f6:	90 e0       	ldi	r25, 0x00	; 0
     8f8:	99 ab       	std	Y+49, r25	; 0x31
     8fa:	88 ab       	std	Y+48, r24	; 0x30
     8fc:	88 a9       	ldd	r24, Y+48	; 0x30
     8fe:	99 a9       	ldd	r25, Y+49	; 0x31
     900:	01 97       	sbiw	r24, 0x01	; 1
     902:	f1 f7       	brne	.-4      	; 0x900 <main+0x49a>
     904:	99 ab       	std	Y+49, r25	; 0x31
     906:	88 ab       	std	Y+48, r24	; 0x30
		while(__ticks)
		{
			// wait 1/10 ms
			_delay_loop_2(((F_CPU) / 4e3) / 10);
			__ticks --;
     908:	8e a5       	ldd	r24, Y+46	; 0x2e
     90a:	9f a5       	ldd	r25, Y+47	; 0x2f
     90c:	01 97       	sbiw	r24, 0x01	; 1
     90e:	9f a7       	std	Y+47, r25	; 0x2f
     910:	8e a7       	std	Y+46, r24	; 0x2e
		__ticks = 1;
	else if (__tmp > 65535)
	{
		//	__ticks = requested delay in 1/10 ms
		__ticks = (uint16_t) (__ms * 10.0);
		while(__ticks)
     912:	8e a5       	ldd	r24, Y+46	; 0x2e
     914:	9f a5       	ldd	r25, Y+47	; 0x2f
     916:	89 2b       	or	r24, r25
     918:	69 f7       	brne	.-38     	; 0x8f4 <main+0x48e>
     91a:	14 c0       	rjmp	.+40     	; 0x944 <main+0x4de>
			__ticks --;
		}
		return;
	}
	else
		__ticks = (uint16_t)__tmp;
     91c:	6a a5       	ldd	r22, Y+42	; 0x2a
     91e:	7b a5       	ldd	r23, Y+43	; 0x2b
     920:	8c a5       	ldd	r24, Y+44	; 0x2c
     922:	9d a5       	ldd	r25, Y+45	; 0x2d
     924:	0e 94 3e 08 	call	0x107c	; 0x107c <__fixunssfsi>
     928:	dc 01       	movw	r26, r24
     92a:	cb 01       	movw	r24, r22
     92c:	9f a7       	std	Y+47, r25	; 0x2f
     92e:	8e a7       	std	Y+46, r24	; 0x2e
     930:	8e a5       	ldd	r24, Y+46	; 0x2e
     932:	9f a5       	ldd	r25, Y+47	; 0x2f
     934:	9b ab       	std	Y+51, r25	; 0x33
     936:	8a ab       	std	Y+50, r24	; 0x32
     938:	8a a9       	ldd	r24, Y+50	; 0x32
     93a:	9b a9       	ldd	r25, Y+51	; 0x33
     93c:	01 97       	sbiw	r24, 0x01	; 1
     93e:	f1 f7       	brne	.-4      	; 0x93c <main+0x4d6>
     940:	9b ab       	std	Y+51, r25	; 0x33
     942:	8a ab       	std	Y+50, r24	; 0x32
							_delay_ms(100);
							
							check++;
     944:	8d 81       	ldd	r24, Y+5	; 0x05
     946:	8f 5f       	subi	r24, 0xFF	; 255
     948:	8d 83       	std	Y+5, r24	; 0x05
						break;
     94a:	00 00       	nop
			{
				uart_str_complete=0;
				send_Byte_0('1');
				_delay_ms(100);
				
				for (counter=0;counter<=data_bytes_recieved;counter++)
     94c:	8e 81       	ldd	r24, Y+6	; 0x06
     94e:	8f 5f       	subi	r24, 0xFF	; 255
     950:	8e 83       	std	Y+6, r24	; 0x06
     952:	80 91 f2 01 	lds	r24, 0x01F2	; 0x8001f2 <data_bytes_recieved>
     956:	9e 81       	ldd	r25, Y+6	; 0x06
     958:	89 17       	cp	r24, r25
     95a:	08 f0       	brcs	.+2      	; 0x95e <main+0x4f8>
     95c:	54 ce       	rjmp	.-856    	; 0x606 <main+0x1a0>
							
							check++;
						break;
					}
				}
				to_pc(final_data);
     95e:	82 e5       	ldi	r24, 0x52	; 82
     960:	92 e0       	ldi	r25, 0x02	; 2
     962:	0e 94 25 01 	call	0x24a	; 0x24a <to_pc>
				data_bytes_recieved=0;
     966:	10 92 f2 01 	sts	0x01F2, r1	; 0x8001f2 <data_bytes_recieved>
				if ((check==0)||(check>2))
     96a:	8d 81       	ldd	r24, Y+5	; 0x05
     96c:	88 23       	and	r24, r24
     96e:	19 f0       	breq	.+6      	; 0x976 <main+0x510>
     970:	8d 81       	ldd	r24, Y+5	; 0x05
     972:	83 30       	cpi	r24, 0x03	; 3
     974:	20 f0       	brcs	.+8      	; 0x97e <main+0x518>
				{
					send_Byte_0('0');
     976:	80 e3       	ldi	r24, 0x30	; 48
     978:	0e 94 ef 00 	call	0x1de	; 0x1de <send_Byte_0>
     97c:	01 c0       	rjmp	.+2      	; 0x980 <main+0x51a>
				}
				else
				{
					check=0;
     97e:	1d 82       	std	Y+5, r1	; 0x05
				}
				
			}
				//snprintf(buffer,50,"G0 X%d Y000 Z150 F1000\n",recieved_X);
				snprintf(buffer,30,"G0 X%d Y%d Z150 F1000\n",recieved_X,recieved_Y);
     980:	8c 81       	ldd	r24, Y+4	; 0x04
     982:	8f 93       	push	r24
     984:	8b 81       	ldd	r24, Y+3	; 0x03
     986:	8f 93       	push	r24
     988:	8a 81       	ldd	r24, Y+2	; 0x02
     98a:	8f 93       	push	r24
     98c:	89 81       	ldd	r24, Y+1	; 0x01
     98e:	8f 93       	push	r24
     990:	89 ed       	ldi	r24, 0xD9	; 217
     992:	91 e0       	ldi	r25, 0x01	; 1
     994:	89 2f       	mov	r24, r25
     996:	8f 93       	push	r24
     998:	89 ed       	ldi	r24, 0xD9	; 217
     99a:	91 e0       	ldi	r25, 0x01	; 1
     99c:	8f 93       	push	r24
     99e:	1f 92       	push	r1
     9a0:	8e e1       	ldi	r24, 0x1E	; 30
     9a2:	8f 93       	push	r24
     9a4:	ce 01       	movw	r24, r28
     9a6:	c4 96       	adiw	r24, 0x34	; 52
     9a8:	29 2f       	mov	r18, r25
     9aa:	2f 93       	push	r18
     9ac:	8f 93       	push	r24
     9ae:	0e 94 76 09 	call	0x12ec	; 0x12ec <snprintf>
     9b2:	8d b7       	in	r24, 0x3d	; 61
     9b4:	9e b7       	in	r25, 0x3e	; 62
     9b6:	0a 96       	adiw	r24, 0x0a	; 10
     9b8:	0f b6       	in	r0, 0x3f	; 63
     9ba:	f8 94       	cli
     9bc:	de bf       	out	0x3e, r29	; 62
     9be:	0f be       	out	0x3f, r0	; 63
     9c0:	cd bf       	out	0x3d, r28	; 61
				write_zahl(2,0,recieved_X,4,0,0);
     9c2:	89 81       	ldd	r24, Y+1	; 0x01
     9c4:	9a 81       	ldd	r25, Y+2	; 0x02
     9c6:	cc 01       	movw	r24, r24
     9c8:	a0 e0       	ldi	r26, 0x00	; 0
     9ca:	b0 e0       	ldi	r27, 0x00	; 0
     9cc:	c1 2c       	mov	r12, r1
     9ce:	e1 2c       	mov	r14, r1
     9d0:	04 e0       	ldi	r16, 0x04	; 4
     9d2:	9c 01       	movw	r18, r24
     9d4:	ad 01       	movw	r20, r26
     9d6:	60 e0       	ldi	r22, 0x00	; 0
     9d8:	82 e0       	ldi	r24, 0x02	; 2
     9da:	0e 94 7b 06 	call	0xcf6	; 0xcf6 <write_zahl>
				write_zahl(3,0,recieved_Y,4,0,0);
     9de:	8b 81       	ldd	r24, Y+3	; 0x03
     9e0:	9c 81       	ldd	r25, Y+4	; 0x04
     9e2:	cc 01       	movw	r24, r24
     9e4:	a0 e0       	ldi	r26, 0x00	; 0
     9e6:	b0 e0       	ldi	r27, 0x00	; 0
     9e8:	c1 2c       	mov	r12, r1
     9ea:	e1 2c       	mov	r14, r1
     9ec:	04 e0       	ldi	r16, 0x04	; 4
     9ee:	9c 01       	movw	r18, r24
     9f0:	ad 01       	movw	r20, r26
     9f2:	60 e0       	ldi	r22, 0x00	; 0
     9f4:	83 e0       	ldi	r24, 0x03	; 3
     9f6:	0e 94 7b 06 	call	0xcf6	; 0xcf6 <write_zahl>
				send_to_uArm(buffer);
     9fa:	ce 01       	movw	r24, r28
     9fc:	c4 96       	adiw	r24, 0x34	; 52
     9fe:	0e 94 6c 01 	call	0x2d8	; 0x2d8 <send_to_uArm>
		//}
		alt=neu;
     a02:	88 85       	ldd	r24, Y+8	; 0x08
     a04:	8f 83       	std	Y+7, r24	; 0x07
	} //end while(1)
     a06:	57 cd       	rjmp	.-1362   	; 0x4b6 <main+0x50>

00000a08 <init_Timer0_1ms_int>:
	wert = pgm_read_byte(&str_ptr[str_p++]);
	while(wert != 0)
	{	write_lcd_f ('D',wert);																				// Daten in obige Adresse schreiben
		wert = pgm_read_byte(&str_ptr[str_p++]);
	}
}
     a08:	cf 93       	push	r28
     a0a:	df 93       	push	r29
     a0c:	cd b7       	in	r28, 0x3d	; 61
     a0e:	de b7       	in	r29, 0x3e	; 62
     a10:	84 e4       	ldi	r24, 0x44	; 68
     a12:	90 e0       	ldi	r25, 0x00	; 0
     a14:	24 e4       	ldi	r18, 0x44	; 68
     a16:	30 e0       	ldi	r19, 0x00	; 0
     a18:	f9 01       	movw	r30, r18
     a1a:	20 81       	ld	r18, Z
     a1c:	22 60       	ori	r18, 0x02	; 2
     a1e:	fc 01       	movw	r30, r24
     a20:	20 83       	st	Z, r18
     a22:	85 e4       	ldi	r24, 0x45	; 69
     a24:	90 e0       	ldi	r25, 0x00	; 0
     a26:	25 e4       	ldi	r18, 0x45	; 69
     a28:	30 e0       	ldi	r19, 0x00	; 0
     a2a:	f9 01       	movw	r30, r18
     a2c:	20 81       	ld	r18, Z
     a2e:	23 60       	ori	r18, 0x03	; 3
     a30:	fc 01       	movw	r30, r24
     a32:	20 83       	st	Z, r18
     a34:	87 e4       	ldi	r24, 0x47	; 71
     a36:	90 e0       	ldi	r25, 0x00	; 0
     a38:	29 ef       	ldi	r18, 0xF9	; 249
     a3a:	fc 01       	movw	r30, r24
     a3c:	20 83       	st	Z, r18
     a3e:	8e e6       	ldi	r24, 0x6E	; 110
     a40:	90 e0       	ldi	r25, 0x00	; 0
     a42:	2e e6       	ldi	r18, 0x6E	; 110
     a44:	30 e0       	ldi	r19, 0x00	; 0
     a46:	f9 01       	movw	r30, r18
     a48:	20 81       	ld	r18, Z
     a4a:	22 60       	ori	r18, 0x02	; 2
     a4c:	fc 01       	movw	r30, r24
     a4e:	20 83       	st	Z, r18
     a50:	00 00       	nop
     a52:	df 91       	pop	r29
     a54:	cf 91       	pop	r28
     a56:	08 95       	ret

00000a58 <__vector_16>:
     a58:	1f 92       	push	r1
     a5a:	0f 92       	push	r0
     a5c:	00 90 5f 00 	lds	r0, 0x005F	; 0x80005f <__TEXT_REGION_LENGTH__+0x7e005f>
     a60:	0f 92       	push	r0
     a62:	11 24       	eor	r1, r1
     a64:	2f 93       	push	r18
     a66:	3f 93       	push	r19
     a68:	4f 93       	push	r20
     a6a:	5f 93       	push	r21
     a6c:	6f 93       	push	r22
     a6e:	7f 93       	push	r23
     a70:	8f 93       	push	r24
     a72:	9f 93       	push	r25
     a74:	af 93       	push	r26
     a76:	bf 93       	push	r27
     a78:	ef 93       	push	r30
     a7a:	ff 93       	push	r31
     a7c:	cf 93       	push	r28
     a7e:	df 93       	push	r29
     a80:	cd b7       	in	r28, 0x3d	; 61
     a82:	de b7       	in	r29, 0x3e	; 62
     a84:	80 91 2b 02 	lds	r24, 0x022B	; 0x80022b <tick_1ms>
     a88:	90 91 2c 02 	lds	r25, 0x022C	; 0x80022c <tick_1ms+0x1>
     a8c:	a0 91 2d 02 	lds	r26, 0x022D	; 0x80022d <tick_1ms+0x2>
     a90:	b0 91 2e 02 	lds	r27, 0x022E	; 0x80022e <tick_1ms+0x3>
     a94:	01 96       	adiw	r24, 0x01	; 1
     a96:	a1 1d       	adc	r26, r1
     a98:	b1 1d       	adc	r27, r1
     a9a:	80 93 2b 02 	sts	0x022B, r24	; 0x80022b <tick_1ms>
     a9e:	90 93 2c 02 	sts	0x022C, r25	; 0x80022c <tick_1ms+0x1>
     aa2:	a0 93 2d 02 	sts	0x022D, r26	; 0x80022d <tick_1ms+0x2>
     aa6:	b0 93 2e 02 	sts	0x022E, r27	; 0x80022e <tick_1ms+0x3>
     aaa:	80 91 2b 02 	lds	r24, 0x022B	; 0x80022b <tick_1ms>
     aae:	90 91 2c 02 	lds	r25, 0x022C	; 0x80022c <tick_1ms+0x1>
     ab2:	a0 91 2d 02 	lds	r26, 0x022D	; 0x80022d <tick_1ms+0x2>
     ab6:	b0 91 2e 02 	lds	r27, 0x022E	; 0x80022e <tick_1ms+0x3>
     aba:	28 ee       	ldi	r18, 0xE8	; 232
     abc:	33 e0       	ldi	r19, 0x03	; 3
     abe:	40 e0       	ldi	r20, 0x00	; 0
     ac0:	50 e0       	ldi	r21, 0x00	; 0
     ac2:	bc 01       	movw	r22, r24
     ac4:	cd 01       	movw	r24, r26
     ac6:	0e 94 54 09 	call	0x12a8	; 0x12a8 <__udivmodsi4>
     aca:	dc 01       	movw	r26, r24
     acc:	cb 01       	movw	r24, r22
     ace:	89 2b       	or	r24, r25
     ad0:	8a 2b       	or	r24, r26
     ad2:	8b 2b       	or	r24, r27
     ad4:	99 f4       	brne	.+38     	; 0xafc <__vector_16+0xa4>
     ad6:	80 91 2f 02 	lds	r24, 0x022F	; 0x80022f <tick_1s>
     ada:	90 91 30 02 	lds	r25, 0x0230	; 0x800230 <tick_1s+0x1>
     ade:	a0 91 31 02 	lds	r26, 0x0231	; 0x800231 <tick_1s+0x2>
     ae2:	b0 91 32 02 	lds	r27, 0x0232	; 0x800232 <tick_1s+0x3>
     ae6:	01 96       	adiw	r24, 0x01	; 1
     ae8:	a1 1d       	adc	r26, r1
     aea:	b1 1d       	adc	r27, r1
     aec:	80 93 2f 02 	sts	0x022F, r24	; 0x80022f <tick_1s>
     af0:	90 93 30 02 	sts	0x0230, r25	; 0x800230 <tick_1s+0x1>
     af4:	a0 93 31 02 	sts	0x0231, r26	; 0x800231 <tick_1s+0x2>
     af8:	b0 93 32 02 	sts	0x0232, r27	; 0x800232 <tick_1s+0x3>
     afc:	80 91 27 02 	lds	r24, 0x0227	; 0x800227 <tick_1ms_cnt>
     b00:	90 91 28 02 	lds	r25, 0x0228	; 0x800228 <tick_1ms_cnt+0x1>
     b04:	a0 91 29 02 	lds	r26, 0x0229	; 0x800229 <tick_1ms_cnt+0x2>
     b08:	b0 91 2a 02 	lds	r27, 0x022A	; 0x80022a <tick_1ms_cnt+0x3>
     b0c:	89 2b       	or	r24, r25
     b0e:	8a 2b       	or	r24, r26
     b10:	8b 2b       	or	r24, r27
     b12:	99 f0       	breq	.+38     	; 0xb3a <__vector_16+0xe2>
     b14:	80 91 27 02 	lds	r24, 0x0227	; 0x800227 <tick_1ms_cnt>
     b18:	90 91 28 02 	lds	r25, 0x0228	; 0x800228 <tick_1ms_cnt+0x1>
     b1c:	a0 91 29 02 	lds	r26, 0x0229	; 0x800229 <tick_1ms_cnt+0x2>
     b20:	b0 91 2a 02 	lds	r27, 0x022A	; 0x80022a <tick_1ms_cnt+0x3>
     b24:	01 97       	sbiw	r24, 0x01	; 1
     b26:	a1 09       	sbc	r26, r1
     b28:	b1 09       	sbc	r27, r1
     b2a:	80 93 27 02 	sts	0x0227, r24	; 0x800227 <tick_1ms_cnt>
     b2e:	90 93 28 02 	sts	0x0228, r25	; 0x800228 <tick_1ms_cnt+0x1>
     b32:	a0 93 29 02 	sts	0x0229, r26	; 0x800229 <tick_1ms_cnt+0x2>
     b36:	b0 93 2a 02 	sts	0x022A, r27	; 0x80022a <tick_1ms_cnt+0x3>
     b3a:	00 00       	nop
     b3c:	df 91       	pop	r29
     b3e:	cf 91       	pop	r28
     b40:	ff 91       	pop	r31
     b42:	ef 91       	pop	r30
     b44:	bf 91       	pop	r27
     b46:	af 91       	pop	r26
     b48:	9f 91       	pop	r25
     b4a:	8f 91       	pop	r24
     b4c:	7f 91       	pop	r23
     b4e:	6f 91       	pop	r22
     b50:	5f 91       	pop	r21
     b52:	4f 91       	pop	r20
     b54:	3f 91       	pop	r19
     b56:	2f 91       	pop	r18
     b58:	0f 90       	pop	r0
     b5a:	00 92 5f 00 	sts	0x005F, r0	; 0x80005f <__TEXT_REGION_LENGTH__+0x7e005f>
     b5e:	0f 90       	pop	r0
     b60:	1f 90       	pop	r1
     b62:	18 95       	reti

00000b64 <wait_1ms>:
     b64:	cf 93       	push	r28
     b66:	df 93       	push	r29
     b68:	00 d0       	rcall	.+0      	; 0xb6a <wait_1ms+0x6>
     b6a:	00 d0       	rcall	.+0      	; 0xb6c <wait_1ms+0x8>
     b6c:	cd b7       	in	r28, 0x3d	; 61
     b6e:	de b7       	in	r29, 0x3e	; 62
     b70:	69 83       	std	Y+1, r22	; 0x01
     b72:	7a 83       	std	Y+2, r23	; 0x02
     b74:	8b 83       	std	Y+3, r24	; 0x03
     b76:	9c 83       	std	Y+4, r25	; 0x04
     b78:	89 81       	ldd	r24, Y+1	; 0x01
     b7a:	9a 81       	ldd	r25, Y+2	; 0x02
     b7c:	ab 81       	ldd	r26, Y+3	; 0x03
     b7e:	bc 81       	ldd	r27, Y+4	; 0x04
     b80:	89 2b       	or	r24, r25
     b82:	8a 2b       	or	r24, r26
     b84:	8b 2b       	or	r24, r27
     b86:	69 f0       	breq	.+26     	; 0xba2 <wait_1ms+0x3e>
     b88:	89 81       	ldd	r24, Y+1	; 0x01
     b8a:	9a 81       	ldd	r25, Y+2	; 0x02
     b8c:	ab 81       	ldd	r26, Y+3	; 0x03
     b8e:	bc 81       	ldd	r27, Y+4	; 0x04
     b90:	80 93 27 02 	sts	0x0227, r24	; 0x800227 <tick_1ms_cnt>
     b94:	90 93 28 02 	sts	0x0228, r25	; 0x800228 <tick_1ms_cnt+0x1>
     b98:	a0 93 29 02 	sts	0x0229, r26	; 0x800229 <tick_1ms_cnt+0x2>
     b9c:	b0 93 2a 02 	sts	0x022A, r27	; 0x80022a <tick_1ms_cnt+0x3>
     ba0:	0c c0       	rjmp	.+24     	; 0xbba <wait_1ms+0x56>
     ba2:	81 e0       	ldi	r24, 0x01	; 1
     ba4:	90 e0       	ldi	r25, 0x00	; 0
     ba6:	a0 e0       	ldi	r26, 0x00	; 0
     ba8:	b0 e0       	ldi	r27, 0x00	; 0
     baa:	80 93 27 02 	sts	0x0227, r24	; 0x800227 <tick_1ms_cnt>
     bae:	90 93 28 02 	sts	0x0228, r25	; 0x800228 <tick_1ms_cnt+0x1>
     bb2:	a0 93 29 02 	sts	0x0229, r26	; 0x800229 <tick_1ms_cnt+0x2>
     bb6:	b0 93 2a 02 	sts	0x022A, r27	; 0x80022a <tick_1ms_cnt+0x3>
     bba:	00 00       	nop
     bbc:	80 91 27 02 	lds	r24, 0x0227	; 0x800227 <tick_1ms_cnt>
     bc0:	90 91 28 02 	lds	r25, 0x0228	; 0x800228 <tick_1ms_cnt+0x1>
     bc4:	a0 91 29 02 	lds	r26, 0x0229	; 0x800229 <tick_1ms_cnt+0x2>
     bc8:	b0 91 2a 02 	lds	r27, 0x022A	; 0x80022a <tick_1ms_cnt+0x3>
     bcc:	89 2b       	or	r24, r25
     bce:	8a 2b       	or	r24, r26
     bd0:	8b 2b       	or	r24, r27
     bd2:	a1 f7       	brne	.-24     	; 0xbbc <wait_1ms+0x58>
     bd4:	00 00       	nop
     bd6:	0f 90       	pop	r0
     bd8:	0f 90       	pop	r0
     bda:	0f 90       	pop	r0
     bdc:	0f 90       	pop	r0
     bde:	df 91       	pop	r29
     be0:	cf 91       	pop	r28
     be2:	08 95       	ret

00000be4 <delay_nop>:
     be4:	cf 93       	push	r28
     be6:	df 93       	push	r29
     be8:	00 d0       	rcall	.+0      	; 0xbea <delay_nop+0x6>
     bea:	cd b7       	in	r28, 0x3d	; 61
     bec:	de b7       	in	r29, 0x3e	; 62
     bee:	8a 83       	std	Y+2, r24	; 0x02
     bf0:	19 82       	std	Y+1, r1	; 0x01
     bf2:	04 c0       	rjmp	.+8      	; 0xbfc <delay_nop+0x18>
     bf4:	00 00       	nop
     bf6:	89 81       	ldd	r24, Y+1	; 0x01
     bf8:	8f 5f       	subi	r24, 0xFF	; 255
     bfa:	89 83       	std	Y+1, r24	; 0x01
     bfc:	99 81       	ldd	r25, Y+1	; 0x01
     bfe:	8a 81       	ldd	r24, Y+2	; 0x02
     c00:	98 17       	cp	r25, r24
     c02:	c0 f3       	brcs	.-16     	; 0xbf4 <delay_nop+0x10>
     c04:	00 00       	nop
     c06:	0f 90       	pop	r0
     c08:	0f 90       	pop	r0
     c0a:	df 91       	pop	r29
     c0c:	cf 91       	pop	r28
     c0e:	08 95       	ret

00000c10 <write_lcd_f>:
     c10:	91 e0       	ldi	r25, 0x01	; 1
     c12:	90 93 33 02 	sts	0x0233, r25	; 0x800233 <write_RGB_LCD_activ>
     c16:	40 9a       	sbi	0x08, 0	; 8
     c18:	41 98       	cbi	0x08, 1	; 8
     c1a:	41 98       	cbi	0x08, 1	; 8
     c1c:	41 9a       	sbi	0x08, 1	; 8
     c1e:	41 9a       	sbi	0x08, 1	; 8
     c20:	41 98       	cbi	0x08, 1	; 8
     c22:	41 98       	cbi	0x08, 1	; 8
     c24:	41 9a       	sbi	0x08, 1	; 8
     c26:	41 9a       	sbi	0x08, 1	; 8
     c28:	41 98       	cbi	0x08, 1	; 8
     c2a:	41 98       	cbi	0x08, 1	; 8
     c2c:	41 9a       	sbi	0x08, 1	; 8
     c2e:	41 9a       	sbi	0x08, 1	; 8
     c30:	41 98       	cbi	0x08, 1	; 8
     c32:	41 98       	cbi	0x08, 1	; 8
     c34:	41 9a       	sbi	0x08, 1	; 8
     c36:	41 9a       	sbi	0x08, 1	; 8
     c38:	41 98       	cbi	0x08, 1	; 8
     c3a:	41 98       	cbi	0x08, 1	; 8
     c3c:	41 9a       	sbi	0x08, 1	; 8
     c3e:	40 98       	cbi	0x08, 0	; 8
     c40:	41 98       	cbi	0x08, 1	; 8
     c42:	41 98       	cbi	0x08, 1	; 8
     c44:	41 9a       	sbi	0x08, 1	; 8
     c46:	83 34       	cpi	r24, 0x43	; 67
     c48:	a9 f1       	breq	.+106    	; 0xcb4 <write_lcd_f+0xa4>
     c4a:	40 9a       	sbi	0x08, 0	; 8
     c4c:	41 98       	cbi	0x08, 1	; 8
     c4e:	41 98       	cbi	0x08, 1	; 8
     c50:	41 9a       	sbi	0x08, 1	; 8
     c52:	40 98       	cbi	0x08, 0	; 8
     c54:	41 98       	cbi	0x08, 1	; 8
     c56:	41 98       	cbi	0x08, 1	; 8
     c58:	41 9a       	sbi	0x08, 1	; 8
     c5a:	84 e0       	ldi	r24, 0x04	; 4
     c5c:	41 98       	cbi	0x08, 1	; 8
     c5e:	60 ff       	sbrs	r22, 0
     c60:	27 c0       	rjmp	.+78     	; 0xcb0 <write_lcd_f+0xa0>
     c62:	40 9a       	sbi	0x08, 0	; 8
     c64:	66 95       	lsr	r22
     c66:	41 98       	cbi	0x08, 1	; 8
     c68:	41 9a       	sbi	0x08, 1	; 8
     c6a:	81 50       	subi	r24, 0x01	; 1
     c6c:	b9 f7       	brne	.-18     	; 0xc5c <write_lcd_f+0x4c>
     c6e:	40 98       	cbi	0x08, 0	; 8
     c70:	84 e0       	ldi	r24, 0x04	; 4
     c72:	41 98       	cbi	0x08, 1	; 8
     c74:	41 98       	cbi	0x08, 1	; 8
     c76:	41 9a       	sbi	0x08, 1	; 8
     c78:	81 50       	subi	r24, 0x01	; 1
     c7a:	d9 f7       	brne	.-10     	; 0xc72 <write_lcd_f+0x62>
     c7c:	84 e0       	ldi	r24, 0x04	; 4
     c7e:	41 98       	cbi	0x08, 1	; 8
     c80:	60 ff       	sbrs	r22, 0
     c82:	14 c0       	rjmp	.+40     	; 0xcac <write_lcd_f+0x9c>
     c84:	40 9a       	sbi	0x08, 0	; 8
     c86:	66 95       	lsr	r22
     c88:	41 98       	cbi	0x08, 1	; 8
     c8a:	41 9a       	sbi	0x08, 1	; 8
     c8c:	81 50       	subi	r24, 0x01	; 1
     c8e:	b9 f7       	brne	.-18     	; 0xc7e <write_lcd_f+0x6e>
     c90:	40 98       	cbi	0x08, 0	; 8
     c92:	84 e0       	ldi	r24, 0x04	; 4
     c94:	41 98       	cbi	0x08, 1	; 8
     c96:	41 98       	cbi	0x08, 1	; 8
     c98:	41 9a       	sbi	0x08, 1	; 8
     c9a:	81 50       	subi	r24, 0x01	; 1
     c9c:	d9 f7       	brne	.-10     	; 0xc94 <write_lcd_f+0x84>
     c9e:	84 e1       	ldi	r24, 0x14	; 20
     ca0:	40 9a       	sbi	0x08, 0	; 8
     ca2:	81 50       	subi	r24, 0x01	; 1
     ca4:	e9 f7       	brne	.-6      	; 0xca0 <write_lcd_f+0x90>
     ca6:	10 92 33 02 	sts	0x0233, r1	; 0x800233 <write_RGB_LCD_activ>
     caa:	08 95       	ret
     cac:	40 98       	cbi	0x08, 0	; 8
     cae:	eb cf       	rjmp	.-42     	; 0xc86 <write_lcd_f+0x76>
     cb0:	40 98       	cbi	0x08, 0	; 8
     cb2:	d8 cf       	rjmp	.-80     	; 0xc64 <write_lcd_f+0x54>
     cb4:	40 98       	cbi	0x08, 0	; 8
     cb6:	ca cf       	rjmp	.-108    	; 0xc4c <write_lcd_f+0x3c>

00000cb8 <write_text_ram>:
* y_pos:   Zeile-Nummer (0..3)
* x_pos:   Spalte-Nummer (0..19) (Zeichenposition auf Zeile)
* str_ptr: Adresse des zu schreibenden Textes
\**********************************************************************************/
void write_text_ram(u8 y_pos, u8 x_pos, const char* str_ptr)
{	u8 str_p = 0;
     cb8:	0f 93       	push	r16
     cba:	1f 93       	push	r17
     cbc:	df 93       	push	r29
     cbe:	8a 01       	movw	r16, r20
	
	x_pos += y_pos * 0x20;																					// Position auf LCD berechnen 4x20 Zeichen
	write_lcd_f ('C',x_pos | 0x80);																	// LCD-Cursor auf gewnsschte Adresse setzen = Position auf LCD
     cc0:	90 e2       	ldi	r25, 0x20	; 32
     cc2:	89 9f       	mul	r24, r25
     cc4:	60 0d       	add	r22, r0
     cc6:	11 24       	eor	r1, r1
     cc8:	60 68       	ori	r22, 0x80	; 128
     cca:	83 e4       	ldi	r24, 0x43	; 67
     ccc:	0e 94 08 06 	call	0xc10	; 0xc10 <write_lcd_f>
	while (str_ptr[str_p]) write_lcd_f ('D',str_ptr[str_p++]);			// Daten in obige Adresse schreiben
     cd0:	f8 01       	movw	r30, r16
     cd2:	60 81       	ld	r22, Z
     cd4:	66 23       	and	r22, r22
     cd6:	59 f0       	breq	.+22     	; 0xcee <write_text_ram+0x36>
     cd8:	d0 e0       	ldi	r29, 0x00	; 0
     cda:	df 5f       	subi	r29, 0xFF	; 255
     cdc:	84 e4       	ldi	r24, 0x44	; 68
     cde:	0e 94 08 06 	call	0xc10	; 0xc10 <write_lcd_f>
     ce2:	f8 01       	movw	r30, r16
     ce4:	ed 0f       	add	r30, r29
     ce6:	f1 1d       	adc	r31, r1
     ce8:	60 81       	ld	r22, Z
     cea:	61 11       	cpse	r22, r1
     cec:	f6 cf       	rjmp	.-20     	; 0xcda <write_text_ram+0x22>
}
     cee:	df 91       	pop	r29
     cf0:	1f 91       	pop	r17
     cf2:	0f 91       	pop	r16
     cf4:	08 95       	ret

00000cf6 <write_zahl>:
*         2 = vor der zweitletzten Ziffer das Komma setzen (Zahl=Zahl/100)
*         3 = vor der drittletzten Ziffer das Komma setzen (Zahl=Zahl/1'000)
*         9 = vor der viertletzten Ziffer das Komma setzen (Zahl=Zahl/10'000)
\**********************************************************************************/
void write_zahl(u8 x_pos, u8 y_pos, u32 zahl_v, u8 s_vk, u8 s_nk, u8 komma)
{
     cf6:	2f 92       	push	r2
     cf8:	3f 92       	push	r3
     cfa:	4f 92       	push	r4
     cfc:	5f 92       	push	r5
     cfe:	6f 92       	push	r6
     d00:	7f 92       	push	r7
     d02:	8f 92       	push	r8
     d04:	9f 92       	push	r9
     d06:	af 92       	push	r10
     d08:	bf 92       	push	r11
     d0a:	cf 92       	push	r12
     d0c:	df 92       	push	r13
     d0e:	ef 92       	push	r14
     d10:	ff 92       	push	r15
     d12:	0f 93       	push	r16
     d14:	1f 93       	push	r17
     d16:	cf 93       	push	r28
     d18:	df 93       	push	r29
     d1a:	cd b7       	in	r28, 0x3d	; 61
     d1c:	de b7       	in	r29, 0x3e	; 62
     d1e:	63 97       	sbiw	r28, 0x13	; 19
     d20:	0f b6       	in	r0, 0x3f	; 63
     d22:	f8 94       	cli
     d24:	de bf       	out	0x3e, r29	; 62
     d26:	0f be       	out	0x3f, r0	; 63
     d28:	cd bf       	out	0x3d, r28	; 61
     d2a:	8a 8b       	std	Y+18, r24	; 0x12
     d2c:	6b 8b       	std	Y+19, r22	; 0x13
     d2e:	29 01       	movw	r4, r18
     d30:	3a 01       	movw	r6, r20
     d32:	c8 8a       	std	Y+16, r12	; 0x10
	u8		i, pos, pos_t, nullen_loeschen = 1;

	//Umwandlung in die einzelnen Stellen-Zahlen 1er, 10er, 100er, ... 1'000'000'000er
	//zahl_v = 1234567890;

	if(s_vk >= 100) 
     d34:	04 36       	cpi	r16, 0x64	; 100
     d36:	08 f4       	brcc	.+2      	; 0xd3a <write_zahl+0x44>
     d38:	bd c0       	rjmp	.+378    	; 0xeb4 <write_zahl+0x1be>
	{ s_vk -= 100;
     d3a:	04 56       	subi	r16, 0x64	; 100
		nullen_loeschen = 0;
     d3c:	19 8a       	std	Y+17, r1	; 0x11
     d3e:	0b 30       	cpi	r16, 0x0B	; 11
     d40:	08 f0       	brcs	.+2      	; 0xd44 <write_zahl+0x4e>
     d42:	0a e0       	ldi	r16, 0x0A	; 10
     d44:	ef 86       	std	Y+15, r14	; 0x0f
     d46:	88 89       	ldd	r24, Y+16	; 0x10
     d48:	8e 15       	cp	r24, r14
     d4a:	08 f4       	brcc	.+2      	; 0xd4e <write_zahl+0x58>
     d4c:	8f 87       	std	Y+15, r24	; 0x0f
	}
	if(s_vk > 10) s_vk = 10;
	
	if (s_nk > komma) s_nk = komma;									// unmglicher Fall: mehr Nachkommastellen als Komma berhaupt geschoben werden 
	if (s_vk + s_nk > 10) s_nk = 10 - s_vk;					// unsinniger  Fall: zu viele Stellen
     d4e:	20 2e       	mov	r2, r16
     d50:	31 2c       	mov	r3, r1
     d52:	c1 01       	movw	r24, r2
     d54:	ef 85       	ldd	r30, Y+15	; 0x0f
     d56:	8e 0f       	add	r24, r30
     d58:	91 1d       	adc	r25, r1
     d5a:	0b 97       	sbiw	r24, 0x0b	; 11
     d5c:	1c f0       	brlt	.+6      	; 0xd64 <write_zahl+0x6e>
     d5e:	8a e0       	ldi	r24, 0x0A	; 10
     d60:	80 1b       	sub	r24, r16
     d62:	8f 87       	std	Y+15, r24	; 0x0f
	
	zehner		= 10;
	send_buffer[11] = (zahl_v % 10) + 48;
     d64:	c3 01       	movw	r24, r6
     d66:	b2 01       	movw	r22, r4
     d68:	2a e0       	ldi	r18, 0x0A	; 10
     d6a:	30 e0       	ldi	r19, 0x00	; 0
     d6c:	40 e0       	ldi	r20, 0x00	; 0
     d6e:	50 e0       	ldi	r21, 0x00	; 0
     d70:	0e 94 54 09 	call	0x12a8	; 0x12a8 <__udivmodsi4>
     d74:	60 5d       	subi	r22, 0xD0	; 208
     d76:	6c 87       	std	Y+12, r22	; 0x0c
	i = 10;
     d78:	1a e0       	ldi	r17, 0x0A	; 10
	if(s_vk > 10) s_vk = 10;
	
	if (s_nk > komma) s_nk = komma;									// unmglicher Fall: mehr Nachkommastellen als Komma berhaupt geschoben werden 
	if (s_vk + s_nk > 10) s_nk = 10 - s_vk;					// unsinniger  Fall: zu viele Stellen
	
	zehner		= 10;
     d7a:	3a e0       	ldi	r19, 0x0A	; 10
     d7c:	c3 2e       	mov	r12, r19
     d7e:	d1 2c       	mov	r13, r1
     d80:	e1 2c       	mov	r14, r1
     d82:	f1 2c       	mov	r15, r1
	send_buffer[11] = (zahl_v % 10) + 48;
	i = 10;
	do
	{ send_buffer[i] = ( (zahl_v / zehner) % 10) + 48;
     d84:	4a e0       	ldi	r20, 0x0A	; 10
     d86:	84 2e       	mov	r8, r20
     d88:	91 2c       	mov	r9, r1
     d8a:	a1 2c       	mov	r10, r1
     d8c:	b1 2c       	mov	r11, r1
     d8e:	81 e0       	ldi	r24, 0x01	; 1
     d90:	90 e0       	ldi	r25, 0x00	; 0
     d92:	8c 0f       	add	r24, r28
     d94:	9d 1f       	adc	r25, r29
     d96:	81 0f       	add	r24, r17
     d98:	91 1d       	adc	r25, r1
     d9a:	9e 87       	std	Y+14, r25	; 0x0e
     d9c:	8d 87       	std	Y+13, r24	; 0x0d
     d9e:	c3 01       	movw	r24, r6
     da0:	b2 01       	movw	r22, r4
     da2:	a7 01       	movw	r20, r14
     da4:	96 01       	movw	r18, r12
     da6:	0e 94 54 09 	call	0x12a8	; 0x12a8 <__udivmodsi4>
     daa:	ca 01       	movw	r24, r20
     dac:	b9 01       	movw	r22, r18
     dae:	a5 01       	movw	r20, r10
     db0:	94 01       	movw	r18, r8
     db2:	0e 94 54 09 	call	0x12a8	; 0x12a8 <__udivmodsi4>
     db6:	60 5d       	subi	r22, 0xD0	; 208
     db8:	ed 85       	ldd	r30, Y+13	; 0x0d
     dba:	fe 85       	ldd	r31, Y+14	; 0x0e
     dbc:	60 83       	st	Z, r22
		zehner *= 10;
     dbe:	cc 0c       	add	r12, r12
     dc0:	dd 1c       	adc	r13, r13
     dc2:	ee 1c       	adc	r14, r14
     dc4:	ff 1c       	adc	r15, r15
     dc6:	d7 01       	movw	r26, r14
     dc8:	c6 01       	movw	r24, r12
     dca:	88 0f       	add	r24, r24
     dcc:	99 1f       	adc	r25, r25
     dce:	aa 1f       	adc	r26, r26
     dd0:	bb 1f       	adc	r27, r27
     dd2:	88 0f       	add	r24, r24
     dd4:	99 1f       	adc	r25, r25
     dd6:	aa 1f       	adc	r26, r26
     dd8:	bb 1f       	adc	r27, r27
     dda:	c8 0e       	add	r12, r24
     ddc:	d9 1e       	adc	r13, r25
     dde:	ea 1e       	adc	r14, r26
     de0:	fb 1e       	adc	r15, r27
	} while(i--);
     de2:	11 50       	subi	r17, 0x01	; 1
     de4:	a0 f6       	brcc	.-88     	; 0xd8e <write_zahl+0x98>
     de6:	2c e0       	ldi	r18, 0x0C	; 12
     de8:	f8 89       	ldd	r31, Y+16	; 0x10
     dea:	2f 1b       	sub	r18, r31

	//Vor-Kommastellen kopieren
	pos = 0;
	pos_t = 12-komma-s_vk;
     dec:	82 2f       	mov	r24, r18
     dee:	80 1b       	sub	r24, r16
	//if(s_vk == 0) pos_t
	for (i = 0; i < s_vk; i++)
     df0:	00 23       	and	r16, r16
     df2:	09 f4       	brne	.+2      	; 0xdf6 <write_zahl+0x100>
     df4:	85 c0       	rjmp	.+266    	; 0xf00 <write_zahl+0x20a>
     df6:	fe 01       	movw	r30, r28
     df8:	31 96       	adiw	r30, 0x01	; 1
	{ send_buffer[pos++] = send_buffer[pos_t++];
     dfa:	a1 e0       	ldi	r26, 0x01	; 1
     dfc:	b0 e0       	ldi	r27, 0x00	; 0
     dfe:	ac 0f       	add	r26, r28
     e00:	bd 1f       	adc	r27, r29
     e02:	a8 0f       	add	r26, r24
     e04:	b1 1d       	adc	r27, r1
     e06:	9c 91       	ld	r25, X
     e08:	91 93       	st	Z+, r25
     e0a:	8f 5f       	subi	r24, 0xFF	; 255

	//Vor-Kommastellen kopieren
	pos = 0;
	pos_t = 12-komma-s_vk;
	//if(s_vk == 0) pos_t
	for (i = 0; i < s_vk; i++)
     e0c:	28 13       	cpse	r18, r24
     e0e:	f5 cf       	rjmp	.-22     	; 0xdfa <write_zahl+0x104>
	{ send_buffer[pos++] = send_buffer[pos_t++];
	}
	if (s_nk > 0)
     e10:	8f 85       	ldd	r24, Y+15	; 0x0f
     e12:	81 11       	cpse	r24, r1
     e14:	52 c0       	rjmp	.+164    	; 0xeba <write_zahl+0x1c4>
     e16:	f1 01       	movw	r30, r2

		//Nach-Kommastellen kopieren
		pos_t = 12-komma;
		for (i = 0; i < s_nk; i++) send_buffer[pos++] = send_buffer[pos_t++];
	}
	send_buffer[pos] = 0;    //Endmarke des Strings setzen
     e18:	81 e0       	ldi	r24, 0x01	; 1
     e1a:	90 e0       	ldi	r25, 0x00	; 0
     e1c:	8c 0f       	add	r24, r28
     e1e:	9d 1f       	adc	r25, r29
     e20:	e8 0f       	add	r30, r24
     e22:	f9 1f       	adc	r31, r25
     e24:	10 82       	st	Z, r1

	if(nullen_loeschen)
     e26:	99 89       	ldd	r25, Y+17	; 0x11
     e28:	99 23       	and	r25, r25
     e2a:	21 f1       	breq	.+72     	; 0xe74 <write_zahl+0x17e>
	{ //Vorangehende Nullen lschen		(xyz)
	  i = 0;
	  while ((send_buffer[i] == 48) && (i < s_vk-1)) send_buffer[i++] = 32;
     e2c:	89 81       	ldd	r24, Y+1	; 0x01
     e2e:	80 33       	cpi	r24, 0x30	; 48
     e30:	09 f5       	brne	.+66     	; 0xe74 <write_zahl+0x17e>
     e32:	a1 01       	movw	r20, r2
     e34:	41 50       	subi	r20, 0x01	; 1
     e36:	51 09       	sbc	r21, r1
     e38:	14 16       	cp	r1, r20
     e3a:	15 06       	cpc	r1, r21
     e3c:	dc f4       	brge	.+54     	; 0xe74 <write_zahl+0x17e>
     e3e:	80 e0       	ldi	r24, 0x00	; 0
     e40:	90 e0       	ldi	r25, 0x00	; 0
     e42:	20 e0       	ldi	r18, 0x00	; 0
     e44:	60 e2       	ldi	r22, 0x20	; 32
     e46:	03 c0       	rjmp	.+6      	; 0xe4e <write_zahl+0x158>
     e48:	84 17       	cp	r24, r20
     e4a:	95 07       	cpc	r25, r21
     e4c:	9c f4       	brge	.+38     	; 0xe74 <write_zahl+0x17e>
     e4e:	2f 5f       	subi	r18, 0xFF	; 255
     e50:	e1 e0       	ldi	r30, 0x01	; 1
     e52:	f0 e0       	ldi	r31, 0x00	; 0
     e54:	ec 0f       	add	r30, r28
     e56:	fd 1f       	adc	r31, r29
     e58:	e8 0f       	add	r30, r24
     e5a:	f9 1f       	adc	r31, r25
     e5c:	60 83       	st	Z, r22
     e5e:	82 2f       	mov	r24, r18
     e60:	90 e0       	ldi	r25, 0x00	; 0
     e62:	e1 e0       	ldi	r30, 0x01	; 1
     e64:	f0 e0       	ldi	r31, 0x00	; 0
     e66:	ec 0f       	add	r30, r28
     e68:	fd 1f       	adc	r31, r29
     e6a:	e8 0f       	add	r30, r24
     e6c:	f9 1f       	adc	r31, r25
     e6e:	30 81       	ld	r19, Z
     e70:	30 33       	cpi	r19, 0x30	; 48
     e72:	51 f3       	breq	.-44     	; 0xe48 <write_zahl+0x152>
	}
	
	write_text_ram(x_pos, y_pos, send_buffer);
     e74:	ae 01       	movw	r20, r28
     e76:	4f 5f       	subi	r20, 0xFF	; 255
     e78:	5f 4f       	sbci	r21, 0xFF	; 255
     e7a:	6b 89       	ldd	r22, Y+19	; 0x13
     e7c:	8a 89       	ldd	r24, Y+18	; 0x12
     e7e:	0e 94 5c 06 	call	0xcb8	; 0xcb8 <write_text_ram>
}
     e82:	63 96       	adiw	r28, 0x13	; 19
     e84:	0f b6       	in	r0, 0x3f	; 63
     e86:	f8 94       	cli
     e88:	de bf       	out	0x3e, r29	; 62
     e8a:	0f be       	out	0x3f, r0	; 63
     e8c:	cd bf       	out	0x3d, r28	; 61
     e8e:	df 91       	pop	r29
     e90:	cf 91       	pop	r28
     e92:	1f 91       	pop	r17
     e94:	0f 91       	pop	r16
     e96:	ff 90       	pop	r15
     e98:	ef 90       	pop	r14
     e9a:	df 90       	pop	r13
     e9c:	cf 90       	pop	r12
     e9e:	bf 90       	pop	r11
     ea0:	af 90       	pop	r10
     ea2:	9f 90       	pop	r9
     ea4:	8f 90       	pop	r8
     ea6:	7f 90       	pop	r7
     ea8:	6f 90       	pop	r6
     eaa:	5f 90       	pop	r5
     eac:	4f 90       	pop	r4
     eae:	3f 90       	pop	r3
     eb0:	2f 90       	pop	r2
     eb2:	08 95       	ret
\**********************************************************************************/
void write_zahl(u8 x_pos, u8 y_pos, u32 zahl_v, u8 s_vk, u8 s_nk, u8 komma)
{
	u32		zehner;
	char	send_buffer[12];
	u8		i, pos, pos_t, nullen_loeschen = 1;
     eb4:	21 e0       	ldi	r18, 0x01	; 1
     eb6:	29 8b       	std	Y+17, r18	; 0x11
     eb8:	42 cf       	rjmp	.-380    	; 0xd3e <write_zahl+0x48>
	//if(s_vk == 0) pos_t
	for (i = 0; i < s_vk; i++)
	{ send_buffer[pos++] = send_buffer[pos_t++];
	}
	if (s_nk > 0)
	{ send_buffer[pos++] = '.';
     eba:	0f 5f       	subi	r16, 0xFF	; 255
     ebc:	8e e2       	ldi	r24, 0x2E	; 46
     ebe:	e1 e0       	ldi	r30, 0x01	; 1
     ec0:	f0 e0       	ldi	r31, 0x00	; 0
     ec2:	ec 0f       	add	r30, r28
     ec4:	fd 1f       	adc	r31, r29
     ec6:	e2 0d       	add	r30, r2
     ec8:	f3 1d       	adc	r31, r3
     eca:	80 83       	st	Z, r24
     ecc:	e0 2f       	mov	r30, r16
     ece:	20 1b       	sub	r18, r16

		//Nach-Kommastellen kopieren
		pos_t = 12-komma;
		for (i = 0; i < s_nk; i++) send_buffer[pos++] = send_buffer[pos_t++];
     ed0:	82 2f       	mov	r24, r18
     ed2:	8e 0f       	add	r24, r30
     ed4:	a1 e0       	ldi	r26, 0x01	; 1
     ed6:	b0 e0       	ldi	r27, 0x00	; 0
     ed8:	ac 0f       	add	r26, r28
     eda:	bd 1f       	adc	r27, r29
     edc:	a8 0f       	add	r26, r24
     ede:	b1 1d       	adc	r27, r1
     ee0:	8c 91       	ld	r24, X
     ee2:	a1 e0       	ldi	r26, 0x01	; 1
     ee4:	b0 e0       	ldi	r27, 0x00	; 0
     ee6:	ac 0f       	add	r26, r28
     ee8:	bd 1f       	adc	r27, r29
     eea:	ae 0f       	add	r26, r30
     eec:	b1 1d       	adc	r27, r1
     eee:	8c 93       	st	X, r24
     ef0:	ef 5f       	subi	r30, 0xFF	; 255
     ef2:	8e 2f       	mov	r24, r30
     ef4:	80 1b       	sub	r24, r16
     ef6:	9f 85       	ldd	r25, Y+15	; 0x0f
     ef8:	89 17       	cp	r24, r25
     efa:	50 f3       	brcs	.-44     	; 0xed0 <write_zahl+0x1da>
     efc:	f0 e0       	ldi	r31, 0x00	; 0
     efe:	8c cf       	rjmp	.-232    	; 0xe18 <write_zahl+0x122>
	pos_t = 12-komma-s_vk;
	//if(s_vk == 0) pos_t
	for (i = 0; i < s_vk; i++)
	{ send_buffer[pos++] = send_buffer[pos_t++];
	}
	if (s_nk > 0)
     f00:	ef 85       	ldd	r30, Y+15	; 0x0f
     f02:	ee 23       	and	r30, r30
     f04:	21 f0       	breq	.+8      	; 0xf0e <write_zahl+0x218>
	{ send_buffer[pos++] = '.';
     f06:	8e e2       	ldi	r24, 0x2E	; 46
     f08:	89 83       	std	Y+1, r24	; 0x01
     f0a:	01 e0       	ldi	r16, 0x01	; 1
     f0c:	df cf       	rjmp	.-66     	; 0xecc <write_zahl+0x1d6>
	pos_t = 12-komma-s_vk;
	//if(s_vk == 0) pos_t
	for (i = 0; i < s_vk; i++)
	{ send_buffer[pos++] = send_buffer[pos_t++];
	}
	if (s_nk > 0)
     f0e:	e0 e0       	ldi	r30, 0x00	; 0
     f10:	f0 e0       	ldi	r31, 0x00	; 0
     f12:	82 cf       	rjmp	.-252    	; 0xe18 <write_zahl+0x122>

00000f14 <lcd_init>:
*
* Initialisierung des integrierten LCD-Displays
\**********************************************************************************/

void lcd_init(void)
{	u8 i;
     f14:	df 93       	push	r29
	
	DDRC |= 0x01;													// Port PC0 auf Output setzen LCD-Outputs SOD
     f16:	38 9a       	sbi	0x07, 0	; 7
	DDRC |= 0x02;													// Port PC1 auf Output setzen LCD-Outputs SCLK
     f18:	39 9a       	sbi	0x07, 1	; 7
     f1a:	d2 e3       	ldi	r29, 0x32	; 50

	for(i=0; i<50; i++) delay_nop(120);   // 10ms (50x 0.2us) warten, bis LCD gestartet ist (Power-Up)
     f1c:	88 e7       	ldi	r24, 0x78	; 120
     f1e:	0e 94 f2 05 	call	0xbe4	; 0xbe4 <delay_nop>
     f22:	d1 50       	subi	r29, 0x01	; 1
     f24:	d9 f7       	brne	.-10     	; 0xf1c <lcd_init+0x8>
	
	write_lcd_f('C',0x34);								// set 8-Bit-Interface RE = 1
     f26:	64 e3       	ldi	r22, 0x34	; 52
     f28:	83 e4       	ldi	r24, 0x43	; 67
     f2a:	0e 94 08 06 	call	0xc10	; 0xc10 <write_lcd_f>
	write_lcd_f('C',0x34);								// Nochmals, denn einige LCD starten sonst nicht korrekt.
     f2e:	64 e3       	ldi	r22, 0x34	; 52
     f30:	83 e4       	ldi	r24, 0x43	; 67
     f32:	0e 94 08 06 	call	0xc10	; 0xc10 <write_lcd_f>
	write_lcd_f('C',0x09);								// 4-Zeilen-Modus, 5-Dot Font-Breite
     f36:	69 e0       	ldi	r22, 0x09	; 9
     f38:	83 e4       	ldi	r24, 0x43	; 67
     f3a:	0e 94 08 06 	call	0xc10	; 0xc10 <write_lcd_f>
	write_lcd_f('C',0x30);								// set 8-Bit-Interface RE = 0
     f3e:	60 e3       	ldi	r22, 0x30	; 48
     f40:	83 e4       	ldi	r24, 0x43	; 67
     f42:	0e 94 08 06 	call	0xc10	; 0xc10 <write_lcd_f>
	write_lcd_f('C',0x0C);								// Display ON, Cursor OFF
     f46:	6c e0       	ldi	r22, 0x0C	; 12
     f48:	83 e4       	ldi	r24, 0x43	; 67
     f4a:	0e 94 08 06 	call	0xc10	; 0xc10 <write_lcd_f>
	write_lcd_f('C',0x01);								// Clear Display
     f4e:	61 e0       	ldi	r22, 0x01	; 1
     f50:	83 e4       	ldi	r24, 0x43	; 67
     f52:	0e 94 08 06 	call	0xc10	; 0xc10 <write_lcd_f>
     f56:	d8 e0       	ldi	r29, 0x08	; 8
	for(i=0; i<8; i++) delay_nop(120);		// 1.6ms (8x 0.2us) warten, bis LCD gelscht ist 
     f58:	88 e7       	ldi	r24, 0x78	; 120
     f5a:	0e 94 f2 05 	call	0xbe4	; 0xbe4 <delay_nop>
     f5e:	d1 50       	subi	r29, 0x01	; 1
     f60:	d9 f7       	brne	.-10     	; 0xf58 <lcd_init+0x44>
	
	write_lcd_f('C',0x07);								// Entry Mode
     f62:	67 e0       	ldi	r22, 0x07	; 7
     f64:	83 e4       	ldi	r24, 0x43	; 67
     f66:	0e 94 08 06 	call	0xc10	; 0xc10 <write_lcd_f>
	init_Timer0_1ms_int(); //Timer0 initialisierung 1ms interrupt
}
     f6a:	df 91       	pop	r29
	write_lcd_f('C',0x0C);								// Display ON, Cursor OFF
	write_lcd_f('C',0x01);								// Clear Display
	for(i=0; i<8; i++) delay_nop(120);		// 1.6ms (8x 0.2us) warten, bis LCD gelscht ist 
	
	write_lcd_f('C',0x07);								// Entry Mode
	init_Timer0_1ms_int(); //Timer0 initialisierung 1ms interrupt
     f6c:	0c 94 04 05 	jmp	0xa08	; 0xa08 <init_Timer0_1ms_int>

00000f70 <clear_lcd>:
*
* Lscht die Anzeige auf dem LCD-Display
\**********************************************************************************/

void clear_lcd(void)
{ u8 i;
     f70:	df 93       	push	r29
	write_lcd_f('C',0x01);      //Clear Display
     f72:	61 e0       	ldi	r22, 0x01	; 1
     f74:	83 e4       	ldi	r24, 0x43	; 67
     f76:	0e 94 08 06 	call	0xc10	; 0xc10 <write_lcd_f>
     f7a:	d8 e0       	ldi	r29, 0x08	; 8
	for(i=0; i<8; i++) delay_nop(120);		// 1.6ms (8x 0.2us) warten, bis LCD gelscht ist 
     f7c:	88 e7       	ldi	r24, 0x78	; 120
     f7e:	0e 94 f2 05 	call	0xbe4	; 0xbe4 <delay_nop>
     f82:	d1 50       	subi	r29, 0x01	; 1
     f84:	d9 f7       	brne	.-10     	; 0xf7c <clear_lcd+0xc>
}
     f86:	df 91       	pop	r29
     f88:	08 95       	ret

00000f8a <LED_Show>:
													// Definition mit "PROGMEM", Lesen mit "pgm_read_byte, pgm_read_ptr"
																		
#pragma GCC optimize 0								// Optimierung ausschalten, damit das Debugging mglich ist

void LED_Show(void)
{
     f8a:	cf 93       	push	r28
     f8c:	df 93       	push	r29
     f8e:	1f 92       	push	r1
     f90:	cd b7       	in	r28, 0x3d	; 61
     f92:	de b7       	in	r29, 0x3e	; 62
	u8 i;
	
	PORTB=0x01;
     f94:	85 e2       	ldi	r24, 0x25	; 37
     f96:	90 e0       	ldi	r25, 0x00	; 0
     f98:	21 e0       	ldi	r18, 0x01	; 1
     f9a:	fc 01       	movw	r30, r24
     f9c:	20 83       	st	Z, r18
	for(i=0;i<8;i++)
     f9e:	19 82       	std	Y+1, r1	; 0x01
     fa0:	17 c0       	rjmp	.+46     	; 0xfd0 <LED_Show+0x46>
	{
		wait_1ms(50);
     fa2:	62 e3       	ldi	r22, 0x32	; 50
     fa4:	70 e0       	ldi	r23, 0x00	; 0
     fa6:	80 e0       	ldi	r24, 0x00	; 0
     fa8:	90 e0       	ldi	r25, 0x00	; 0
     faa:	0e 94 b2 05 	call	0xb64	; 0xb64 <wait_1ms>
		PORTB=0x01<<i;
     fae:	85 e2       	ldi	r24, 0x25	; 37
     fb0:	90 e0       	ldi	r25, 0x00	; 0
     fb2:	29 81       	ldd	r18, Y+1	; 0x01
     fb4:	42 2f       	mov	r20, r18
     fb6:	50 e0       	ldi	r21, 0x00	; 0
     fb8:	21 e0       	ldi	r18, 0x01	; 1
     fba:	30 e0       	ldi	r19, 0x00	; 0
     fbc:	02 c0       	rjmp	.+4      	; 0xfc2 <LED_Show+0x38>
     fbe:	22 0f       	add	r18, r18
     fc0:	33 1f       	adc	r19, r19
     fc2:	4a 95       	dec	r20
     fc4:	e2 f7       	brpl	.-8      	; 0xfbe <LED_Show+0x34>
     fc6:	fc 01       	movw	r30, r24
     fc8:	20 83       	st	Z, r18
void LED_Show(void)
{
	u8 i;
	
	PORTB=0x01;
	for(i=0;i<8;i++)
     fca:	89 81       	ldd	r24, Y+1	; 0x01
     fcc:	8f 5f       	subi	r24, 0xFF	; 255
     fce:	89 83       	std	Y+1, r24	; 0x01
     fd0:	89 81       	ldd	r24, Y+1	; 0x01
     fd2:	88 30       	cpi	r24, 0x08	; 8
     fd4:	30 f3       	brcs	.-52     	; 0xfa2 <LED_Show+0x18>
	{
		wait_1ms(50);
		PORTB=0x01<<i;
	}
	PORTB=0x80;
     fd6:	85 e2       	ldi	r24, 0x25	; 37
     fd8:	90 e0       	ldi	r25, 0x00	; 0
     fda:	20 e8       	ldi	r18, 0x80	; 128
     fdc:	fc 01       	movw	r30, r24
     fde:	20 83       	st	Z, r18
	for(i=0;i<8;i++)
     fe0:	19 82       	std	Y+1, r1	; 0x01
     fe2:	17 c0       	rjmp	.+46     	; 0x1012 <LED_Show+0x88>
	{
		wait_1ms(50);
     fe4:	62 e3       	ldi	r22, 0x32	; 50
     fe6:	70 e0       	ldi	r23, 0x00	; 0
     fe8:	80 e0       	ldi	r24, 0x00	; 0
     fea:	90 e0       	ldi	r25, 0x00	; 0
     fec:	0e 94 b2 05 	call	0xb64	; 0xb64 <wait_1ms>
		PORTB=0x80>>i;
     ff0:	85 e2       	ldi	r24, 0x25	; 37
     ff2:	90 e0       	ldi	r25, 0x00	; 0
     ff4:	29 81       	ldd	r18, Y+1	; 0x01
     ff6:	42 2f       	mov	r20, r18
     ff8:	50 e0       	ldi	r21, 0x00	; 0
     ffa:	20 e8       	ldi	r18, 0x80	; 128
     ffc:	30 e0       	ldi	r19, 0x00	; 0
     ffe:	02 c0       	rjmp	.+4      	; 0x1004 <LED_Show+0x7a>
    1000:	35 95       	asr	r19
    1002:	27 95       	ror	r18
    1004:	4a 95       	dec	r20
    1006:	e2 f7       	brpl	.-8      	; 0x1000 <LED_Show+0x76>
    1008:	fc 01       	movw	r30, r24
    100a:	20 83       	st	Z, r18
	{
		wait_1ms(50);
		PORTB=0x01<<i;
	}
	PORTB=0x80;
	for(i=0;i<8;i++)
    100c:	89 81       	ldd	r24, Y+1	; 0x01
    100e:	8f 5f       	subi	r24, 0xFF	; 255
    1010:	89 83       	std	Y+1, r24	; 0x01
    1012:	89 81       	ldd	r24, Y+1	; 0x01
    1014:	88 30       	cpi	r24, 0x08	; 8
    1016:	30 f3       	brcs	.-52     	; 0xfe4 <LED_Show+0x5a>
	{
		wait_1ms(50);
		PORTB=0x80>>i;
	}
	wait_1ms(100);
    1018:	64 e6       	ldi	r22, 0x64	; 100
    101a:	70 e0       	ldi	r23, 0x00	; 0
    101c:	80 e0       	ldi	r24, 0x00	; 0
    101e:	90 e0       	ldi	r25, 0x00	; 0
    1020:	0e 94 b2 05 	call	0xb64	; 0xb64 <wait_1ms>
	PORTB=0x00;	
    1024:	85 e2       	ldi	r24, 0x25	; 37
    1026:	90 e0       	ldi	r25, 0x00	; 0
    1028:	fc 01       	movw	r30, r24
    102a:	10 82       	st	Z, r1
}
    102c:	00 00       	nop
    102e:	0f 90       	pop	r0
    1030:	df 91       	pop	r29
    1032:	cf 91       	pop	r28
    1034:	08 95       	ret

00001036 <init_BT_CAR_V2_0>:

void init_BT_CAR_V2_0(void)
{
    1036:	cf 93       	push	r28
    1038:	df 93       	push	r29
    103a:	cd b7       	in	r28, 0x3d	; 61
    103c:	de b7       	in	r29, 0x3e	; 62
	// Initialisierung PortA
	DDRA  = 0x60;			// Eingang PA0..PA4 as Input (analog Signals), PA5 and PA6 as Output and PA7 as Input (SRG Ansteuerung)
    103e:	81 e2       	ldi	r24, 0x21	; 33
    1040:	90 e0       	ldi	r25, 0x00	; 0
    1042:	20 e6       	ldi	r18, 0x60	; 96
    1044:	fc 01       	movw	r30, r24
    1046:	20 83       	st	Z, r18

	//Initialisierung Port B
	DDRB  =  0xFF;			// LED Port, alles Outputs, ACHTUNG PB.0...PB.3 sind auch Taster am LCD Display
    1048:	84 e2       	ldi	r24, 0x24	; 36
    104a:	90 e0       	ldi	r25, 0x00	; 0
    104c:	2f ef       	ldi	r18, 0xFF	; 255
    104e:	fc 01       	movw	r30, r24
    1050:	20 83       	st	Z, r18
	//PC0, PC1 im LCD Driver definiert
	//PC2...PC5 fr JTAG Schnittstelle
	//PC6, PC7 32.678 KHz Quarz 

	//Initialisierung PortD
	DDRD  =  0xFC;			// PD7,PD6,PD5,PD4 als Outputs (PWM), PD3 Output (Enable HB), PD2 Output (Summer)
    1052:	8a e2       	ldi	r24, 0x2A	; 42
    1054:	90 e0       	ldi	r25, 0x00	; 0
    1056:	2c ef       	ldi	r18, 0xFC	; 252
    1058:	fc 01       	movw	r30, r24
    105a:	20 83       	st	Z, r18
							// PD1 und PD0 sind TxD und RxD von UART0 werden ber RXEN und TXEN aktiviert
							
	sei(); 					// Global Interrupts aktivieren	
    105c:	78 94       	sei
	lcd_init();				// Das LCD muss ebenfalls initialisiert werden, um spter genutz werden zu knnen
    105e:	0e 94 8a 07 	call	0xf14	; 0xf14 <lcd_init>
	clear_lcd();
    1062:	0e 94 b8 07 	call	0xf70	; 0xf70 <clear_lcd>
	//write_text(0, 0,PSTR("LCD init ok"));
	LED_Show();							
    1066:	0e 94 c5 07 	call	0xf8a	; 0xf8a <LED_Show>
}
    106a:	00 00       	nop
    106c:	df 91       	pop	r29
    106e:	cf 91       	pop	r28
    1070:	08 95       	ret

00001072 <__cmpsf2>:
    1072:	0e 94 6d 08 	call	0x10da	; 0x10da <__fp_cmp>
    1076:	08 f4       	brcc	.+2      	; 0x107a <__cmpsf2+0x8>
    1078:	81 e0       	ldi	r24, 0x01	; 1
    107a:	08 95       	ret

0000107c <__fixunssfsi>:
    107c:	0e 94 99 08 	call	0x1132	; 0x1132 <__fp_splitA>
    1080:	88 f0       	brcs	.+34     	; 0x10a4 <__fixunssfsi+0x28>
    1082:	9f 57       	subi	r25, 0x7F	; 127
    1084:	98 f0       	brcs	.+38     	; 0x10ac <__fixunssfsi+0x30>
    1086:	b9 2f       	mov	r27, r25
    1088:	99 27       	eor	r25, r25
    108a:	b7 51       	subi	r27, 0x17	; 23
    108c:	b0 f0       	brcs	.+44     	; 0x10ba <__fixunssfsi+0x3e>
    108e:	e1 f0       	breq	.+56     	; 0x10c8 <__fixunssfsi+0x4c>
    1090:	66 0f       	add	r22, r22
    1092:	77 1f       	adc	r23, r23
    1094:	88 1f       	adc	r24, r24
    1096:	99 1f       	adc	r25, r25
    1098:	1a f0       	brmi	.+6      	; 0x10a0 <__fixunssfsi+0x24>
    109a:	ba 95       	dec	r27
    109c:	c9 f7       	brne	.-14     	; 0x1090 <__fixunssfsi+0x14>
    109e:	14 c0       	rjmp	.+40     	; 0x10c8 <__fixunssfsi+0x4c>
    10a0:	b1 30       	cpi	r27, 0x01	; 1
    10a2:	91 f0       	breq	.+36     	; 0x10c8 <__fixunssfsi+0x4c>
    10a4:	0e 94 b3 08 	call	0x1166	; 0x1166 <__fp_zero>
    10a8:	b1 e0       	ldi	r27, 0x01	; 1
    10aa:	08 95       	ret
    10ac:	0c 94 b3 08 	jmp	0x1166	; 0x1166 <__fp_zero>
    10b0:	67 2f       	mov	r22, r23
    10b2:	78 2f       	mov	r23, r24
    10b4:	88 27       	eor	r24, r24
    10b6:	b8 5f       	subi	r27, 0xF8	; 248
    10b8:	39 f0       	breq	.+14     	; 0x10c8 <__fixunssfsi+0x4c>
    10ba:	b9 3f       	cpi	r27, 0xF9	; 249
    10bc:	cc f3       	brlt	.-14     	; 0x10b0 <__fixunssfsi+0x34>
    10be:	86 95       	lsr	r24
    10c0:	77 95       	ror	r23
    10c2:	67 95       	ror	r22
    10c4:	b3 95       	inc	r27
    10c6:	d9 f7       	brne	.-10     	; 0x10be <__fixunssfsi+0x42>
    10c8:	3e f4       	brtc	.+14     	; 0x10d8 <__fixunssfsi+0x5c>
    10ca:	90 95       	com	r25
    10cc:	80 95       	com	r24
    10ce:	70 95       	com	r23
    10d0:	61 95       	neg	r22
    10d2:	7f 4f       	sbci	r23, 0xFF	; 255
    10d4:	8f 4f       	sbci	r24, 0xFF	; 255
    10d6:	9f 4f       	sbci	r25, 0xFF	; 255
    10d8:	08 95       	ret

000010da <__fp_cmp>:
    10da:	99 0f       	add	r25, r25
    10dc:	00 08       	sbc	r0, r0
    10de:	55 0f       	add	r21, r21
    10e0:	aa 0b       	sbc	r26, r26
    10e2:	e0 e8       	ldi	r30, 0x80	; 128
    10e4:	fe ef       	ldi	r31, 0xFE	; 254
    10e6:	16 16       	cp	r1, r22
    10e8:	17 06       	cpc	r1, r23
    10ea:	e8 07       	cpc	r30, r24
    10ec:	f9 07       	cpc	r31, r25
    10ee:	c0 f0       	brcs	.+48     	; 0x1120 <__stack+0x21>
    10f0:	12 16       	cp	r1, r18
    10f2:	13 06       	cpc	r1, r19
    10f4:	e4 07       	cpc	r30, r20
    10f6:	f5 07       	cpc	r31, r21
    10f8:	98 f0       	brcs	.+38     	; 0x1120 <__stack+0x21>
    10fa:	62 1b       	sub	r22, r18
    10fc:	73 0b       	sbc	r23, r19
    10fe:	84 0b       	sbc	r24, r20
    1100:	95 0b       	sbc	r25, r21
    1102:	39 f4       	brne	.+14     	; 0x1112 <__stack+0x13>
    1104:	0a 26       	eor	r0, r26
    1106:	61 f0       	breq	.+24     	; 0x1120 <__stack+0x21>
    1108:	23 2b       	or	r18, r19
    110a:	24 2b       	or	r18, r20
    110c:	25 2b       	or	r18, r21
    110e:	21 f4       	brne	.+8      	; 0x1118 <__stack+0x19>
    1110:	08 95       	ret
    1112:	0a 26       	eor	r0, r26
    1114:	09 f4       	brne	.+2      	; 0x1118 <__stack+0x19>
    1116:	a1 40       	sbci	r26, 0x01	; 1
    1118:	a6 95       	lsr	r26
    111a:	8f ef       	ldi	r24, 0xFF	; 255
    111c:	81 1d       	adc	r24, r1
    111e:	81 1d       	adc	r24, r1
    1120:	08 95       	ret

00001122 <__fp_split3>:
    1122:	57 fd       	sbrc	r21, 7
    1124:	90 58       	subi	r25, 0x80	; 128
    1126:	44 0f       	add	r20, r20
    1128:	55 1f       	adc	r21, r21
    112a:	59 f0       	breq	.+22     	; 0x1142 <__fp_splitA+0x10>
    112c:	5f 3f       	cpi	r21, 0xFF	; 255
    112e:	71 f0       	breq	.+28     	; 0x114c <__fp_splitA+0x1a>
    1130:	47 95       	ror	r20

00001132 <__fp_splitA>:
    1132:	88 0f       	add	r24, r24
    1134:	97 fb       	bst	r25, 7
    1136:	99 1f       	adc	r25, r25
    1138:	61 f0       	breq	.+24     	; 0x1152 <__fp_splitA+0x20>
    113a:	9f 3f       	cpi	r25, 0xFF	; 255
    113c:	79 f0       	breq	.+30     	; 0x115c <__fp_splitA+0x2a>
    113e:	87 95       	ror	r24
    1140:	08 95       	ret
    1142:	12 16       	cp	r1, r18
    1144:	13 06       	cpc	r1, r19
    1146:	14 06       	cpc	r1, r20
    1148:	55 1f       	adc	r21, r21
    114a:	f2 cf       	rjmp	.-28     	; 0x1130 <__fp_split3+0xe>
    114c:	46 95       	lsr	r20
    114e:	f1 df       	rcall	.-30     	; 0x1132 <__fp_splitA>
    1150:	08 c0       	rjmp	.+16     	; 0x1162 <__fp_splitA+0x30>
    1152:	16 16       	cp	r1, r22
    1154:	17 06       	cpc	r1, r23
    1156:	18 06       	cpc	r1, r24
    1158:	99 1f       	adc	r25, r25
    115a:	f1 cf       	rjmp	.-30     	; 0x113e <__fp_splitA+0xc>
    115c:	86 95       	lsr	r24
    115e:	71 05       	cpc	r23, r1
    1160:	61 05       	cpc	r22, r1
    1162:	08 94       	sec
    1164:	08 95       	ret

00001166 <__fp_zero>:
    1166:	e8 94       	clt

00001168 <__fp_szero>:
    1168:	bb 27       	eor	r27, r27
    116a:	66 27       	eor	r22, r22
    116c:	77 27       	eor	r23, r23
    116e:	cb 01       	movw	r24, r22
    1170:	97 f9       	bld	r25, 7
    1172:	08 95       	ret

00001174 <__gesf2>:
    1174:	0e 94 6d 08 	call	0x10da	; 0x10da <__fp_cmp>
    1178:	08 f4       	brcc	.+2      	; 0x117c <__gesf2+0x8>
    117a:	8f ef       	ldi	r24, 0xFF	; 255
    117c:	08 95       	ret

0000117e <__mulsf3>:
    117e:	0e 94 d2 08 	call	0x11a4	; 0x11a4 <__mulsf3x>
    1182:	0c 94 43 09 	jmp	0x1286	; 0x1286 <__fp_round>
    1186:	0e 94 35 09 	call	0x126a	; 0x126a <__fp_pscA>
    118a:	38 f0       	brcs	.+14     	; 0x119a <__mulsf3+0x1c>
    118c:	0e 94 3c 09 	call	0x1278	; 0x1278 <__fp_pscB>
    1190:	20 f0       	brcs	.+8      	; 0x119a <__mulsf3+0x1c>
    1192:	95 23       	and	r25, r21
    1194:	11 f0       	breq	.+4      	; 0x119a <__mulsf3+0x1c>
    1196:	0c 94 2c 09 	jmp	0x1258	; 0x1258 <__fp_inf>
    119a:	0c 94 32 09 	jmp	0x1264	; 0x1264 <__fp_nan>
    119e:	11 24       	eor	r1, r1
    11a0:	0c 94 b4 08 	jmp	0x1168	; 0x1168 <__fp_szero>

000011a4 <__mulsf3x>:
    11a4:	0e 94 91 08 	call	0x1122	; 0x1122 <__fp_split3>
    11a8:	70 f3       	brcs	.-36     	; 0x1186 <__mulsf3+0x8>

000011aa <__mulsf3_pse>:
    11aa:	95 9f       	mul	r25, r21
    11ac:	c1 f3       	breq	.-16     	; 0x119e <__mulsf3+0x20>
    11ae:	95 0f       	add	r25, r21
    11b0:	50 e0       	ldi	r21, 0x00	; 0
    11b2:	55 1f       	adc	r21, r21
    11b4:	62 9f       	mul	r22, r18
    11b6:	f0 01       	movw	r30, r0
    11b8:	72 9f       	mul	r23, r18
    11ba:	bb 27       	eor	r27, r27
    11bc:	f0 0d       	add	r31, r0
    11be:	b1 1d       	adc	r27, r1
    11c0:	63 9f       	mul	r22, r19
    11c2:	aa 27       	eor	r26, r26
    11c4:	f0 0d       	add	r31, r0
    11c6:	b1 1d       	adc	r27, r1
    11c8:	aa 1f       	adc	r26, r26
    11ca:	64 9f       	mul	r22, r20
    11cc:	66 27       	eor	r22, r22
    11ce:	b0 0d       	add	r27, r0
    11d0:	a1 1d       	adc	r26, r1
    11d2:	66 1f       	adc	r22, r22
    11d4:	82 9f       	mul	r24, r18
    11d6:	22 27       	eor	r18, r18
    11d8:	b0 0d       	add	r27, r0
    11da:	a1 1d       	adc	r26, r1
    11dc:	62 1f       	adc	r22, r18
    11de:	73 9f       	mul	r23, r19
    11e0:	b0 0d       	add	r27, r0
    11e2:	a1 1d       	adc	r26, r1
    11e4:	62 1f       	adc	r22, r18
    11e6:	83 9f       	mul	r24, r19
    11e8:	a0 0d       	add	r26, r0
    11ea:	61 1d       	adc	r22, r1
    11ec:	22 1f       	adc	r18, r18
    11ee:	74 9f       	mul	r23, r20
    11f0:	33 27       	eor	r19, r19
    11f2:	a0 0d       	add	r26, r0
    11f4:	61 1d       	adc	r22, r1
    11f6:	23 1f       	adc	r18, r19
    11f8:	84 9f       	mul	r24, r20
    11fa:	60 0d       	add	r22, r0
    11fc:	21 1d       	adc	r18, r1
    11fe:	82 2f       	mov	r24, r18
    1200:	76 2f       	mov	r23, r22
    1202:	6a 2f       	mov	r22, r26
    1204:	11 24       	eor	r1, r1
    1206:	9f 57       	subi	r25, 0x7F	; 127
    1208:	50 40       	sbci	r21, 0x00	; 0
    120a:	9a f0       	brmi	.+38     	; 0x1232 <__mulsf3_pse+0x88>
    120c:	f1 f0       	breq	.+60     	; 0x124a <__mulsf3_pse+0xa0>
    120e:	88 23       	and	r24, r24
    1210:	4a f0       	brmi	.+18     	; 0x1224 <__mulsf3_pse+0x7a>
    1212:	ee 0f       	add	r30, r30
    1214:	ff 1f       	adc	r31, r31
    1216:	bb 1f       	adc	r27, r27
    1218:	66 1f       	adc	r22, r22
    121a:	77 1f       	adc	r23, r23
    121c:	88 1f       	adc	r24, r24
    121e:	91 50       	subi	r25, 0x01	; 1
    1220:	50 40       	sbci	r21, 0x00	; 0
    1222:	a9 f7       	brne	.-22     	; 0x120e <__mulsf3_pse+0x64>
    1224:	9e 3f       	cpi	r25, 0xFE	; 254
    1226:	51 05       	cpc	r21, r1
    1228:	80 f0       	brcs	.+32     	; 0x124a <__mulsf3_pse+0xa0>
    122a:	0c 94 2c 09 	jmp	0x1258	; 0x1258 <__fp_inf>
    122e:	0c 94 b4 08 	jmp	0x1168	; 0x1168 <__fp_szero>
    1232:	5f 3f       	cpi	r21, 0xFF	; 255
    1234:	e4 f3       	brlt	.-8      	; 0x122e <__mulsf3_pse+0x84>
    1236:	98 3e       	cpi	r25, 0xE8	; 232
    1238:	d4 f3       	brlt	.-12     	; 0x122e <__mulsf3_pse+0x84>
    123a:	86 95       	lsr	r24
    123c:	77 95       	ror	r23
    123e:	67 95       	ror	r22
    1240:	b7 95       	ror	r27
    1242:	f7 95       	ror	r31
    1244:	e7 95       	ror	r30
    1246:	9f 5f       	subi	r25, 0xFF	; 255
    1248:	c1 f7       	brne	.-16     	; 0x123a <__mulsf3_pse+0x90>
    124a:	fe 2b       	or	r31, r30
    124c:	88 0f       	add	r24, r24
    124e:	91 1d       	adc	r25, r1
    1250:	96 95       	lsr	r25
    1252:	87 95       	ror	r24
    1254:	97 f9       	bld	r25, 7
    1256:	08 95       	ret

00001258 <__fp_inf>:
    1258:	97 f9       	bld	r25, 7
    125a:	9f 67       	ori	r25, 0x7F	; 127
    125c:	80 e8       	ldi	r24, 0x80	; 128
    125e:	70 e0       	ldi	r23, 0x00	; 0
    1260:	60 e0       	ldi	r22, 0x00	; 0
    1262:	08 95       	ret

00001264 <__fp_nan>:
    1264:	9f ef       	ldi	r25, 0xFF	; 255
    1266:	80 ec       	ldi	r24, 0xC0	; 192
    1268:	08 95       	ret

0000126a <__fp_pscA>:
    126a:	00 24       	eor	r0, r0
    126c:	0a 94       	dec	r0
    126e:	16 16       	cp	r1, r22
    1270:	17 06       	cpc	r1, r23
    1272:	18 06       	cpc	r1, r24
    1274:	09 06       	cpc	r0, r25
    1276:	08 95       	ret

00001278 <__fp_pscB>:
    1278:	00 24       	eor	r0, r0
    127a:	0a 94       	dec	r0
    127c:	12 16       	cp	r1, r18
    127e:	13 06       	cpc	r1, r19
    1280:	14 06       	cpc	r1, r20
    1282:	05 06       	cpc	r0, r21
    1284:	08 95       	ret

00001286 <__fp_round>:
    1286:	09 2e       	mov	r0, r25
    1288:	03 94       	inc	r0
    128a:	00 0c       	add	r0, r0
    128c:	11 f4       	brne	.+4      	; 0x1292 <__fp_round+0xc>
    128e:	88 23       	and	r24, r24
    1290:	52 f0       	brmi	.+20     	; 0x12a6 <__fp_round+0x20>
    1292:	bb 0f       	add	r27, r27
    1294:	40 f4       	brcc	.+16     	; 0x12a6 <__fp_round+0x20>
    1296:	bf 2b       	or	r27, r31
    1298:	11 f4       	brne	.+4      	; 0x129e <__fp_round+0x18>
    129a:	60 ff       	sbrs	r22, 0
    129c:	04 c0       	rjmp	.+8      	; 0x12a6 <__fp_round+0x20>
    129e:	6f 5f       	subi	r22, 0xFF	; 255
    12a0:	7f 4f       	sbci	r23, 0xFF	; 255
    12a2:	8f 4f       	sbci	r24, 0xFF	; 255
    12a4:	9f 4f       	sbci	r25, 0xFF	; 255
    12a6:	08 95       	ret

000012a8 <__udivmodsi4>:
    12a8:	a1 e2       	ldi	r26, 0x21	; 33
    12aa:	1a 2e       	mov	r1, r26
    12ac:	aa 1b       	sub	r26, r26
    12ae:	bb 1b       	sub	r27, r27
    12b0:	fd 01       	movw	r30, r26
    12b2:	0d c0       	rjmp	.+26     	; 0x12ce <__udivmodsi4_ep>

000012b4 <__udivmodsi4_loop>:
    12b4:	aa 1f       	adc	r26, r26
    12b6:	bb 1f       	adc	r27, r27
    12b8:	ee 1f       	adc	r30, r30
    12ba:	ff 1f       	adc	r31, r31
    12bc:	a2 17       	cp	r26, r18
    12be:	b3 07       	cpc	r27, r19
    12c0:	e4 07       	cpc	r30, r20
    12c2:	f5 07       	cpc	r31, r21
    12c4:	20 f0       	brcs	.+8      	; 0x12ce <__udivmodsi4_ep>
    12c6:	a2 1b       	sub	r26, r18
    12c8:	b3 0b       	sbc	r27, r19
    12ca:	e4 0b       	sbc	r30, r20
    12cc:	f5 0b       	sbc	r31, r21

000012ce <__udivmodsi4_ep>:
    12ce:	66 1f       	adc	r22, r22
    12d0:	77 1f       	adc	r23, r23
    12d2:	88 1f       	adc	r24, r24
    12d4:	99 1f       	adc	r25, r25
    12d6:	1a 94       	dec	r1
    12d8:	69 f7       	brne	.-38     	; 0x12b4 <__udivmodsi4_loop>
    12da:	60 95       	com	r22
    12dc:	70 95       	com	r23
    12de:	80 95       	com	r24
    12e0:	90 95       	com	r25
    12e2:	9b 01       	movw	r18, r22
    12e4:	ac 01       	movw	r20, r24
    12e6:	bd 01       	movw	r22, r26
    12e8:	cf 01       	movw	r24, r30
    12ea:	08 95       	ret

000012ec <snprintf>:
    12ec:	ae e0       	ldi	r26, 0x0E	; 14
    12ee:	b0 e0       	ldi	r27, 0x00	; 0
    12f0:	ec e7       	ldi	r30, 0x7C	; 124
    12f2:	f9 e0       	ldi	r31, 0x09	; 9
    12f4:	0c 94 45 0c 	jmp	0x188a	; 0x188a <__prologue_saves__+0x1c>
    12f8:	0d 89       	ldd	r16, Y+21	; 0x15
    12fa:	1e 89       	ldd	r17, Y+22	; 0x16
    12fc:	8f 89       	ldd	r24, Y+23	; 0x17
    12fe:	98 8d       	ldd	r25, Y+24	; 0x18
    1300:	26 e0       	ldi	r18, 0x06	; 6
    1302:	2c 83       	std	Y+4, r18	; 0x04
    1304:	1a 83       	std	Y+2, r17	; 0x02
    1306:	09 83       	std	Y+1, r16	; 0x01
    1308:	97 ff       	sbrs	r25, 7
    130a:	02 c0       	rjmp	.+4      	; 0x1310 <snprintf+0x24>
    130c:	80 e0       	ldi	r24, 0x00	; 0
    130e:	90 e8       	ldi	r25, 0x80	; 128
    1310:	01 97       	sbiw	r24, 0x01	; 1
    1312:	9e 83       	std	Y+6, r25	; 0x06
    1314:	8d 83       	std	Y+5, r24	; 0x05
    1316:	ae 01       	movw	r20, r28
    1318:	45 5e       	subi	r20, 0xE5	; 229
    131a:	5f 4f       	sbci	r21, 0xFF	; 255
    131c:	69 8d       	ldd	r22, Y+25	; 0x19
    131e:	7a 8d       	ldd	r23, Y+26	; 0x1a
    1320:	ce 01       	movw	r24, r28
    1322:	01 96       	adiw	r24, 0x01	; 1
    1324:	0e 94 a6 09 	call	0x134c	; 0x134c <vfprintf>
    1328:	4d 81       	ldd	r20, Y+5	; 0x05
    132a:	5e 81       	ldd	r21, Y+6	; 0x06
    132c:	57 fd       	sbrc	r21, 7
    132e:	0a c0       	rjmp	.+20     	; 0x1344 <snprintf+0x58>
    1330:	2f 81       	ldd	r18, Y+7	; 0x07
    1332:	38 85       	ldd	r19, Y+8	; 0x08
    1334:	42 17       	cp	r20, r18
    1336:	53 07       	cpc	r21, r19
    1338:	0c f4       	brge	.+2      	; 0x133c <snprintf+0x50>
    133a:	9a 01       	movw	r18, r20
    133c:	f8 01       	movw	r30, r16
    133e:	e2 0f       	add	r30, r18
    1340:	f3 1f       	adc	r31, r19
    1342:	10 82       	st	Z, r1
    1344:	2e 96       	adiw	r28, 0x0e	; 14
    1346:	e4 e0       	ldi	r30, 0x04	; 4
    1348:	0c 94 61 0c 	jmp	0x18c2	; 0x18c2 <__epilogue_restores__+0x1c>

0000134c <vfprintf>:
    134c:	ab e0       	ldi	r26, 0x0B	; 11
    134e:	b0 e0       	ldi	r27, 0x00	; 0
    1350:	ec ea       	ldi	r30, 0xAC	; 172
    1352:	f9 e0       	ldi	r31, 0x09	; 9
    1354:	0c 94 37 0c 	jmp	0x186e	; 0x186e <__prologue_saves__>
    1358:	6c 01       	movw	r12, r24
    135a:	7b 01       	movw	r14, r22
    135c:	8a 01       	movw	r16, r20
    135e:	fc 01       	movw	r30, r24
    1360:	17 82       	std	Z+7, r1	; 0x07
    1362:	16 82       	std	Z+6, r1	; 0x06
    1364:	83 81       	ldd	r24, Z+3	; 0x03
    1366:	81 ff       	sbrs	r24, 1
    1368:	cc c1       	rjmp	.+920    	; 0x1702 <vfprintf+0x3b6>
    136a:	ce 01       	movw	r24, r28
    136c:	01 96       	adiw	r24, 0x01	; 1
    136e:	3c 01       	movw	r6, r24
    1370:	f6 01       	movw	r30, r12
    1372:	93 81       	ldd	r25, Z+3	; 0x03
    1374:	f7 01       	movw	r30, r14
    1376:	93 fd       	sbrc	r25, 3
    1378:	85 91       	lpm	r24, Z+
    137a:	93 ff       	sbrs	r25, 3
    137c:	81 91       	ld	r24, Z+
    137e:	7f 01       	movw	r14, r30
    1380:	88 23       	and	r24, r24
    1382:	09 f4       	brne	.+2      	; 0x1386 <vfprintf+0x3a>
    1384:	ba c1       	rjmp	.+884    	; 0x16fa <vfprintf+0x3ae>
    1386:	85 32       	cpi	r24, 0x25	; 37
    1388:	39 f4       	brne	.+14     	; 0x1398 <vfprintf+0x4c>
    138a:	93 fd       	sbrc	r25, 3
    138c:	85 91       	lpm	r24, Z+
    138e:	93 ff       	sbrs	r25, 3
    1390:	81 91       	ld	r24, Z+
    1392:	7f 01       	movw	r14, r30
    1394:	85 32       	cpi	r24, 0x25	; 37
    1396:	29 f4       	brne	.+10     	; 0x13a2 <vfprintf+0x56>
    1398:	b6 01       	movw	r22, r12
    139a:	90 e0       	ldi	r25, 0x00	; 0
    139c:	0e 94 9d 0b 	call	0x173a	; 0x173a <fputc>
    13a0:	e7 cf       	rjmp	.-50     	; 0x1370 <vfprintf+0x24>
    13a2:	91 2c       	mov	r9, r1
    13a4:	21 2c       	mov	r2, r1
    13a6:	31 2c       	mov	r3, r1
    13a8:	ff e1       	ldi	r31, 0x1F	; 31
    13aa:	f3 15       	cp	r31, r3
    13ac:	d8 f0       	brcs	.+54     	; 0x13e4 <vfprintf+0x98>
    13ae:	8b 32       	cpi	r24, 0x2B	; 43
    13b0:	79 f0       	breq	.+30     	; 0x13d0 <vfprintf+0x84>
    13b2:	38 f4       	brcc	.+14     	; 0x13c2 <vfprintf+0x76>
    13b4:	80 32       	cpi	r24, 0x20	; 32
    13b6:	79 f0       	breq	.+30     	; 0x13d6 <vfprintf+0x8a>
    13b8:	83 32       	cpi	r24, 0x23	; 35
    13ba:	a1 f4       	brne	.+40     	; 0x13e4 <vfprintf+0x98>
    13bc:	23 2d       	mov	r18, r3
    13be:	20 61       	ori	r18, 0x10	; 16
    13c0:	1d c0       	rjmp	.+58     	; 0x13fc <vfprintf+0xb0>
    13c2:	8d 32       	cpi	r24, 0x2D	; 45
    13c4:	61 f0       	breq	.+24     	; 0x13de <vfprintf+0x92>
    13c6:	80 33       	cpi	r24, 0x30	; 48
    13c8:	69 f4       	brne	.+26     	; 0x13e4 <vfprintf+0x98>
    13ca:	23 2d       	mov	r18, r3
    13cc:	21 60       	ori	r18, 0x01	; 1
    13ce:	16 c0       	rjmp	.+44     	; 0x13fc <vfprintf+0xb0>
    13d0:	83 2d       	mov	r24, r3
    13d2:	82 60       	ori	r24, 0x02	; 2
    13d4:	38 2e       	mov	r3, r24
    13d6:	e3 2d       	mov	r30, r3
    13d8:	e4 60       	ori	r30, 0x04	; 4
    13da:	3e 2e       	mov	r3, r30
    13dc:	2a c0       	rjmp	.+84     	; 0x1432 <vfprintf+0xe6>
    13de:	f3 2d       	mov	r31, r3
    13e0:	f8 60       	ori	r31, 0x08	; 8
    13e2:	1d c0       	rjmp	.+58     	; 0x141e <vfprintf+0xd2>
    13e4:	37 fc       	sbrc	r3, 7
    13e6:	2d c0       	rjmp	.+90     	; 0x1442 <vfprintf+0xf6>
    13e8:	20 ed       	ldi	r18, 0xD0	; 208
    13ea:	28 0f       	add	r18, r24
    13ec:	2a 30       	cpi	r18, 0x0A	; 10
    13ee:	40 f0       	brcs	.+16     	; 0x1400 <vfprintf+0xb4>
    13f0:	8e 32       	cpi	r24, 0x2E	; 46
    13f2:	b9 f4       	brne	.+46     	; 0x1422 <vfprintf+0xd6>
    13f4:	36 fc       	sbrc	r3, 6
    13f6:	81 c1       	rjmp	.+770    	; 0x16fa <vfprintf+0x3ae>
    13f8:	23 2d       	mov	r18, r3
    13fa:	20 64       	ori	r18, 0x40	; 64
    13fc:	32 2e       	mov	r3, r18
    13fe:	19 c0       	rjmp	.+50     	; 0x1432 <vfprintf+0xe6>
    1400:	36 fe       	sbrs	r3, 6
    1402:	06 c0       	rjmp	.+12     	; 0x1410 <vfprintf+0xc4>
    1404:	8a e0       	ldi	r24, 0x0A	; 10
    1406:	98 9e       	mul	r9, r24
    1408:	20 0d       	add	r18, r0
    140a:	11 24       	eor	r1, r1
    140c:	92 2e       	mov	r9, r18
    140e:	11 c0       	rjmp	.+34     	; 0x1432 <vfprintf+0xe6>
    1410:	ea e0       	ldi	r30, 0x0A	; 10
    1412:	2e 9e       	mul	r2, r30
    1414:	20 0d       	add	r18, r0
    1416:	11 24       	eor	r1, r1
    1418:	22 2e       	mov	r2, r18
    141a:	f3 2d       	mov	r31, r3
    141c:	f0 62       	ori	r31, 0x20	; 32
    141e:	3f 2e       	mov	r3, r31
    1420:	08 c0       	rjmp	.+16     	; 0x1432 <vfprintf+0xe6>
    1422:	8c 36       	cpi	r24, 0x6C	; 108
    1424:	21 f4       	brne	.+8      	; 0x142e <vfprintf+0xe2>
    1426:	83 2d       	mov	r24, r3
    1428:	80 68       	ori	r24, 0x80	; 128
    142a:	38 2e       	mov	r3, r24
    142c:	02 c0       	rjmp	.+4      	; 0x1432 <vfprintf+0xe6>
    142e:	88 36       	cpi	r24, 0x68	; 104
    1430:	41 f4       	brne	.+16     	; 0x1442 <vfprintf+0xf6>
    1432:	f7 01       	movw	r30, r14
    1434:	93 fd       	sbrc	r25, 3
    1436:	85 91       	lpm	r24, Z+
    1438:	93 ff       	sbrs	r25, 3
    143a:	81 91       	ld	r24, Z+
    143c:	7f 01       	movw	r14, r30
    143e:	81 11       	cpse	r24, r1
    1440:	b3 cf       	rjmp	.-154    	; 0x13a8 <vfprintf+0x5c>
    1442:	98 2f       	mov	r25, r24
    1444:	9f 7d       	andi	r25, 0xDF	; 223
    1446:	95 54       	subi	r25, 0x45	; 69
    1448:	93 30       	cpi	r25, 0x03	; 3
    144a:	28 f4       	brcc	.+10     	; 0x1456 <vfprintf+0x10a>
    144c:	0c 5f       	subi	r16, 0xFC	; 252
    144e:	1f 4f       	sbci	r17, 0xFF	; 255
    1450:	9f e3       	ldi	r25, 0x3F	; 63
    1452:	99 83       	std	Y+1, r25	; 0x01
    1454:	0d c0       	rjmp	.+26     	; 0x1470 <vfprintf+0x124>
    1456:	83 36       	cpi	r24, 0x63	; 99
    1458:	31 f0       	breq	.+12     	; 0x1466 <vfprintf+0x11a>
    145a:	83 37       	cpi	r24, 0x73	; 115
    145c:	71 f0       	breq	.+28     	; 0x147a <vfprintf+0x12e>
    145e:	83 35       	cpi	r24, 0x53	; 83
    1460:	09 f0       	breq	.+2      	; 0x1464 <vfprintf+0x118>
    1462:	59 c0       	rjmp	.+178    	; 0x1516 <vfprintf+0x1ca>
    1464:	21 c0       	rjmp	.+66     	; 0x14a8 <vfprintf+0x15c>
    1466:	f8 01       	movw	r30, r16
    1468:	80 81       	ld	r24, Z
    146a:	89 83       	std	Y+1, r24	; 0x01
    146c:	0e 5f       	subi	r16, 0xFE	; 254
    146e:	1f 4f       	sbci	r17, 0xFF	; 255
    1470:	88 24       	eor	r8, r8
    1472:	83 94       	inc	r8
    1474:	91 2c       	mov	r9, r1
    1476:	53 01       	movw	r10, r6
    1478:	13 c0       	rjmp	.+38     	; 0x14a0 <vfprintf+0x154>
    147a:	28 01       	movw	r4, r16
    147c:	f2 e0       	ldi	r31, 0x02	; 2
    147e:	4f 0e       	add	r4, r31
    1480:	51 1c       	adc	r5, r1
    1482:	f8 01       	movw	r30, r16
    1484:	a0 80       	ld	r10, Z
    1486:	b1 80       	ldd	r11, Z+1	; 0x01
    1488:	36 fe       	sbrs	r3, 6
    148a:	03 c0       	rjmp	.+6      	; 0x1492 <vfprintf+0x146>
    148c:	69 2d       	mov	r22, r9
    148e:	70 e0       	ldi	r23, 0x00	; 0
    1490:	02 c0       	rjmp	.+4      	; 0x1496 <vfprintf+0x14a>
    1492:	6f ef       	ldi	r22, 0xFF	; 255
    1494:	7f ef       	ldi	r23, 0xFF	; 255
    1496:	c5 01       	movw	r24, r10
    1498:	0e 94 92 0b 	call	0x1724	; 0x1724 <strnlen>
    149c:	4c 01       	movw	r8, r24
    149e:	82 01       	movw	r16, r4
    14a0:	f3 2d       	mov	r31, r3
    14a2:	ff 77       	andi	r31, 0x7F	; 127
    14a4:	3f 2e       	mov	r3, r31
    14a6:	16 c0       	rjmp	.+44     	; 0x14d4 <vfprintf+0x188>
    14a8:	28 01       	movw	r4, r16
    14aa:	22 e0       	ldi	r18, 0x02	; 2
    14ac:	42 0e       	add	r4, r18
    14ae:	51 1c       	adc	r5, r1
    14b0:	f8 01       	movw	r30, r16
    14b2:	a0 80       	ld	r10, Z
    14b4:	b1 80       	ldd	r11, Z+1	; 0x01
    14b6:	36 fe       	sbrs	r3, 6
    14b8:	03 c0       	rjmp	.+6      	; 0x14c0 <vfprintf+0x174>
    14ba:	69 2d       	mov	r22, r9
    14bc:	70 e0       	ldi	r23, 0x00	; 0
    14be:	02 c0       	rjmp	.+4      	; 0x14c4 <vfprintf+0x178>
    14c0:	6f ef       	ldi	r22, 0xFF	; 255
    14c2:	7f ef       	ldi	r23, 0xFF	; 255
    14c4:	c5 01       	movw	r24, r10
    14c6:	0e 94 87 0b 	call	0x170e	; 0x170e <strnlen_P>
    14ca:	4c 01       	movw	r8, r24
    14cc:	f3 2d       	mov	r31, r3
    14ce:	f0 68       	ori	r31, 0x80	; 128
    14d0:	3f 2e       	mov	r3, r31
    14d2:	82 01       	movw	r16, r4
    14d4:	33 fc       	sbrc	r3, 3
    14d6:	1b c0       	rjmp	.+54     	; 0x150e <vfprintf+0x1c2>
    14d8:	82 2d       	mov	r24, r2
    14da:	90 e0       	ldi	r25, 0x00	; 0
    14dc:	88 16       	cp	r8, r24
    14de:	99 06       	cpc	r9, r25
    14e0:	b0 f4       	brcc	.+44     	; 0x150e <vfprintf+0x1c2>
    14e2:	b6 01       	movw	r22, r12
    14e4:	80 e2       	ldi	r24, 0x20	; 32
    14e6:	90 e0       	ldi	r25, 0x00	; 0
    14e8:	0e 94 9d 0b 	call	0x173a	; 0x173a <fputc>
    14ec:	2a 94       	dec	r2
    14ee:	f4 cf       	rjmp	.-24     	; 0x14d8 <vfprintf+0x18c>
    14f0:	f5 01       	movw	r30, r10
    14f2:	37 fc       	sbrc	r3, 7
    14f4:	85 91       	lpm	r24, Z+
    14f6:	37 fe       	sbrs	r3, 7
    14f8:	81 91       	ld	r24, Z+
    14fa:	5f 01       	movw	r10, r30
    14fc:	b6 01       	movw	r22, r12
    14fe:	90 e0       	ldi	r25, 0x00	; 0
    1500:	0e 94 9d 0b 	call	0x173a	; 0x173a <fputc>
    1504:	21 10       	cpse	r2, r1
    1506:	2a 94       	dec	r2
    1508:	21 e0       	ldi	r18, 0x01	; 1
    150a:	82 1a       	sub	r8, r18
    150c:	91 08       	sbc	r9, r1
    150e:	81 14       	cp	r8, r1
    1510:	91 04       	cpc	r9, r1
    1512:	71 f7       	brne	.-36     	; 0x14f0 <vfprintf+0x1a4>
    1514:	e8 c0       	rjmp	.+464    	; 0x16e6 <vfprintf+0x39a>
    1516:	84 36       	cpi	r24, 0x64	; 100
    1518:	11 f0       	breq	.+4      	; 0x151e <vfprintf+0x1d2>
    151a:	89 36       	cpi	r24, 0x69	; 105
    151c:	41 f5       	brne	.+80     	; 0x156e <vfprintf+0x222>
    151e:	f8 01       	movw	r30, r16
    1520:	37 fe       	sbrs	r3, 7
    1522:	07 c0       	rjmp	.+14     	; 0x1532 <vfprintf+0x1e6>
    1524:	60 81       	ld	r22, Z
    1526:	71 81       	ldd	r23, Z+1	; 0x01
    1528:	82 81       	ldd	r24, Z+2	; 0x02
    152a:	93 81       	ldd	r25, Z+3	; 0x03
    152c:	0c 5f       	subi	r16, 0xFC	; 252
    152e:	1f 4f       	sbci	r17, 0xFF	; 255
    1530:	08 c0       	rjmp	.+16     	; 0x1542 <vfprintf+0x1f6>
    1532:	60 81       	ld	r22, Z
    1534:	71 81       	ldd	r23, Z+1	; 0x01
    1536:	07 2e       	mov	r0, r23
    1538:	00 0c       	add	r0, r0
    153a:	88 0b       	sbc	r24, r24
    153c:	99 0b       	sbc	r25, r25
    153e:	0e 5f       	subi	r16, 0xFE	; 254
    1540:	1f 4f       	sbci	r17, 0xFF	; 255
    1542:	f3 2d       	mov	r31, r3
    1544:	ff 76       	andi	r31, 0x6F	; 111
    1546:	3f 2e       	mov	r3, r31
    1548:	97 ff       	sbrs	r25, 7
    154a:	09 c0       	rjmp	.+18     	; 0x155e <vfprintf+0x212>
    154c:	90 95       	com	r25
    154e:	80 95       	com	r24
    1550:	70 95       	com	r23
    1552:	61 95       	neg	r22
    1554:	7f 4f       	sbci	r23, 0xFF	; 255
    1556:	8f 4f       	sbci	r24, 0xFF	; 255
    1558:	9f 4f       	sbci	r25, 0xFF	; 255
    155a:	f0 68       	ori	r31, 0x80	; 128
    155c:	3f 2e       	mov	r3, r31
    155e:	2a e0       	ldi	r18, 0x0A	; 10
    1560:	30 e0       	ldi	r19, 0x00	; 0
    1562:	a3 01       	movw	r20, r6
    1564:	0e 94 d9 0b 	call	0x17b2	; 0x17b2 <__ultoa_invert>
    1568:	88 2e       	mov	r8, r24
    156a:	86 18       	sub	r8, r6
    156c:	45 c0       	rjmp	.+138    	; 0x15f8 <vfprintf+0x2ac>
    156e:	85 37       	cpi	r24, 0x75	; 117
    1570:	31 f4       	brne	.+12     	; 0x157e <vfprintf+0x232>
    1572:	23 2d       	mov	r18, r3
    1574:	2f 7e       	andi	r18, 0xEF	; 239
    1576:	b2 2e       	mov	r11, r18
    1578:	2a e0       	ldi	r18, 0x0A	; 10
    157a:	30 e0       	ldi	r19, 0x00	; 0
    157c:	25 c0       	rjmp	.+74     	; 0x15c8 <vfprintf+0x27c>
    157e:	93 2d       	mov	r25, r3
    1580:	99 7f       	andi	r25, 0xF9	; 249
    1582:	b9 2e       	mov	r11, r25
    1584:	8f 36       	cpi	r24, 0x6F	; 111
    1586:	c1 f0       	breq	.+48     	; 0x15b8 <vfprintf+0x26c>
    1588:	18 f4       	brcc	.+6      	; 0x1590 <vfprintf+0x244>
    158a:	88 35       	cpi	r24, 0x58	; 88
    158c:	79 f0       	breq	.+30     	; 0x15ac <vfprintf+0x260>
    158e:	b5 c0       	rjmp	.+362    	; 0x16fa <vfprintf+0x3ae>
    1590:	80 37       	cpi	r24, 0x70	; 112
    1592:	19 f0       	breq	.+6      	; 0x159a <vfprintf+0x24e>
    1594:	88 37       	cpi	r24, 0x78	; 120
    1596:	21 f0       	breq	.+8      	; 0x15a0 <vfprintf+0x254>
    1598:	b0 c0       	rjmp	.+352    	; 0x16fa <vfprintf+0x3ae>
    159a:	e9 2f       	mov	r30, r25
    159c:	e0 61       	ori	r30, 0x10	; 16
    159e:	be 2e       	mov	r11, r30
    15a0:	b4 fe       	sbrs	r11, 4
    15a2:	0d c0       	rjmp	.+26     	; 0x15be <vfprintf+0x272>
    15a4:	fb 2d       	mov	r31, r11
    15a6:	f4 60       	ori	r31, 0x04	; 4
    15a8:	bf 2e       	mov	r11, r31
    15aa:	09 c0       	rjmp	.+18     	; 0x15be <vfprintf+0x272>
    15ac:	34 fe       	sbrs	r3, 4
    15ae:	0a c0       	rjmp	.+20     	; 0x15c4 <vfprintf+0x278>
    15b0:	29 2f       	mov	r18, r25
    15b2:	26 60       	ori	r18, 0x06	; 6
    15b4:	b2 2e       	mov	r11, r18
    15b6:	06 c0       	rjmp	.+12     	; 0x15c4 <vfprintf+0x278>
    15b8:	28 e0       	ldi	r18, 0x08	; 8
    15ba:	30 e0       	ldi	r19, 0x00	; 0
    15bc:	05 c0       	rjmp	.+10     	; 0x15c8 <vfprintf+0x27c>
    15be:	20 e1       	ldi	r18, 0x10	; 16
    15c0:	30 e0       	ldi	r19, 0x00	; 0
    15c2:	02 c0       	rjmp	.+4      	; 0x15c8 <vfprintf+0x27c>
    15c4:	20 e1       	ldi	r18, 0x10	; 16
    15c6:	32 e0       	ldi	r19, 0x02	; 2
    15c8:	f8 01       	movw	r30, r16
    15ca:	b7 fe       	sbrs	r11, 7
    15cc:	07 c0       	rjmp	.+14     	; 0x15dc <vfprintf+0x290>
    15ce:	60 81       	ld	r22, Z
    15d0:	71 81       	ldd	r23, Z+1	; 0x01
    15d2:	82 81       	ldd	r24, Z+2	; 0x02
    15d4:	93 81       	ldd	r25, Z+3	; 0x03
    15d6:	0c 5f       	subi	r16, 0xFC	; 252
    15d8:	1f 4f       	sbci	r17, 0xFF	; 255
    15da:	06 c0       	rjmp	.+12     	; 0x15e8 <vfprintf+0x29c>
    15dc:	60 81       	ld	r22, Z
    15de:	71 81       	ldd	r23, Z+1	; 0x01
    15e0:	80 e0       	ldi	r24, 0x00	; 0
    15e2:	90 e0       	ldi	r25, 0x00	; 0
    15e4:	0e 5f       	subi	r16, 0xFE	; 254
    15e6:	1f 4f       	sbci	r17, 0xFF	; 255
    15e8:	a3 01       	movw	r20, r6
    15ea:	0e 94 d9 0b 	call	0x17b2	; 0x17b2 <__ultoa_invert>
    15ee:	88 2e       	mov	r8, r24
    15f0:	86 18       	sub	r8, r6
    15f2:	fb 2d       	mov	r31, r11
    15f4:	ff 77       	andi	r31, 0x7F	; 127
    15f6:	3f 2e       	mov	r3, r31
    15f8:	36 fe       	sbrs	r3, 6
    15fa:	0d c0       	rjmp	.+26     	; 0x1616 <vfprintf+0x2ca>
    15fc:	23 2d       	mov	r18, r3
    15fe:	2e 7f       	andi	r18, 0xFE	; 254
    1600:	a2 2e       	mov	r10, r18
    1602:	89 14       	cp	r8, r9
    1604:	58 f4       	brcc	.+22     	; 0x161c <vfprintf+0x2d0>
    1606:	34 fe       	sbrs	r3, 4
    1608:	0b c0       	rjmp	.+22     	; 0x1620 <vfprintf+0x2d4>
    160a:	32 fc       	sbrc	r3, 2
    160c:	09 c0       	rjmp	.+18     	; 0x1620 <vfprintf+0x2d4>
    160e:	83 2d       	mov	r24, r3
    1610:	8e 7e       	andi	r24, 0xEE	; 238
    1612:	a8 2e       	mov	r10, r24
    1614:	05 c0       	rjmp	.+10     	; 0x1620 <vfprintf+0x2d4>
    1616:	b8 2c       	mov	r11, r8
    1618:	a3 2c       	mov	r10, r3
    161a:	03 c0       	rjmp	.+6      	; 0x1622 <vfprintf+0x2d6>
    161c:	b8 2c       	mov	r11, r8
    161e:	01 c0       	rjmp	.+2      	; 0x1622 <vfprintf+0x2d6>
    1620:	b9 2c       	mov	r11, r9
    1622:	a4 fe       	sbrs	r10, 4
    1624:	0f c0       	rjmp	.+30     	; 0x1644 <vfprintf+0x2f8>
    1626:	fe 01       	movw	r30, r28
    1628:	e8 0d       	add	r30, r8
    162a:	f1 1d       	adc	r31, r1
    162c:	80 81       	ld	r24, Z
    162e:	80 33       	cpi	r24, 0x30	; 48
    1630:	21 f4       	brne	.+8      	; 0x163a <vfprintf+0x2ee>
    1632:	9a 2d       	mov	r25, r10
    1634:	99 7e       	andi	r25, 0xE9	; 233
    1636:	a9 2e       	mov	r10, r25
    1638:	09 c0       	rjmp	.+18     	; 0x164c <vfprintf+0x300>
    163a:	a2 fe       	sbrs	r10, 2
    163c:	06 c0       	rjmp	.+12     	; 0x164a <vfprintf+0x2fe>
    163e:	b3 94       	inc	r11
    1640:	b3 94       	inc	r11
    1642:	04 c0       	rjmp	.+8      	; 0x164c <vfprintf+0x300>
    1644:	8a 2d       	mov	r24, r10
    1646:	86 78       	andi	r24, 0x86	; 134
    1648:	09 f0       	breq	.+2      	; 0x164c <vfprintf+0x300>
    164a:	b3 94       	inc	r11
    164c:	a3 fc       	sbrc	r10, 3
    164e:	11 c0       	rjmp	.+34     	; 0x1672 <vfprintf+0x326>
    1650:	a0 fe       	sbrs	r10, 0
    1652:	06 c0       	rjmp	.+12     	; 0x1660 <vfprintf+0x314>
    1654:	b2 14       	cp	r11, r2
    1656:	88 f4       	brcc	.+34     	; 0x167a <vfprintf+0x32e>
    1658:	28 0c       	add	r2, r8
    165a:	92 2c       	mov	r9, r2
    165c:	9b 18       	sub	r9, r11
    165e:	0e c0       	rjmp	.+28     	; 0x167c <vfprintf+0x330>
    1660:	b2 14       	cp	r11, r2
    1662:	60 f4       	brcc	.+24     	; 0x167c <vfprintf+0x330>
    1664:	b6 01       	movw	r22, r12
    1666:	80 e2       	ldi	r24, 0x20	; 32
    1668:	90 e0       	ldi	r25, 0x00	; 0
    166a:	0e 94 9d 0b 	call	0x173a	; 0x173a <fputc>
    166e:	b3 94       	inc	r11
    1670:	f7 cf       	rjmp	.-18     	; 0x1660 <vfprintf+0x314>
    1672:	b2 14       	cp	r11, r2
    1674:	18 f4       	brcc	.+6      	; 0x167c <vfprintf+0x330>
    1676:	2b 18       	sub	r2, r11
    1678:	02 c0       	rjmp	.+4      	; 0x167e <vfprintf+0x332>
    167a:	98 2c       	mov	r9, r8
    167c:	21 2c       	mov	r2, r1
    167e:	a4 fe       	sbrs	r10, 4
    1680:	10 c0       	rjmp	.+32     	; 0x16a2 <vfprintf+0x356>
    1682:	b6 01       	movw	r22, r12
    1684:	80 e3       	ldi	r24, 0x30	; 48
    1686:	90 e0       	ldi	r25, 0x00	; 0
    1688:	0e 94 9d 0b 	call	0x173a	; 0x173a <fputc>
    168c:	a2 fe       	sbrs	r10, 2
    168e:	17 c0       	rjmp	.+46     	; 0x16be <vfprintf+0x372>
    1690:	a1 fc       	sbrc	r10, 1
    1692:	03 c0       	rjmp	.+6      	; 0x169a <vfprintf+0x34e>
    1694:	88 e7       	ldi	r24, 0x78	; 120
    1696:	90 e0       	ldi	r25, 0x00	; 0
    1698:	02 c0       	rjmp	.+4      	; 0x169e <vfprintf+0x352>
    169a:	88 e5       	ldi	r24, 0x58	; 88
    169c:	90 e0       	ldi	r25, 0x00	; 0
    169e:	b6 01       	movw	r22, r12
    16a0:	0c c0       	rjmp	.+24     	; 0x16ba <vfprintf+0x36e>
    16a2:	8a 2d       	mov	r24, r10
    16a4:	86 78       	andi	r24, 0x86	; 134
    16a6:	59 f0       	breq	.+22     	; 0x16be <vfprintf+0x372>
    16a8:	a1 fe       	sbrs	r10, 1
    16aa:	02 c0       	rjmp	.+4      	; 0x16b0 <vfprintf+0x364>
    16ac:	8b e2       	ldi	r24, 0x2B	; 43
    16ae:	01 c0       	rjmp	.+2      	; 0x16b2 <vfprintf+0x366>
    16b0:	80 e2       	ldi	r24, 0x20	; 32
    16b2:	a7 fc       	sbrc	r10, 7
    16b4:	8d e2       	ldi	r24, 0x2D	; 45
    16b6:	b6 01       	movw	r22, r12
    16b8:	90 e0       	ldi	r25, 0x00	; 0
    16ba:	0e 94 9d 0b 	call	0x173a	; 0x173a <fputc>
    16be:	89 14       	cp	r8, r9
    16c0:	38 f4       	brcc	.+14     	; 0x16d0 <vfprintf+0x384>
    16c2:	b6 01       	movw	r22, r12
    16c4:	80 e3       	ldi	r24, 0x30	; 48
    16c6:	90 e0       	ldi	r25, 0x00	; 0
    16c8:	0e 94 9d 0b 	call	0x173a	; 0x173a <fputc>
    16cc:	9a 94       	dec	r9
    16ce:	f7 cf       	rjmp	.-18     	; 0x16be <vfprintf+0x372>
    16d0:	8a 94       	dec	r8
    16d2:	f3 01       	movw	r30, r6
    16d4:	e8 0d       	add	r30, r8
    16d6:	f1 1d       	adc	r31, r1
    16d8:	80 81       	ld	r24, Z
    16da:	b6 01       	movw	r22, r12
    16dc:	90 e0       	ldi	r25, 0x00	; 0
    16de:	0e 94 9d 0b 	call	0x173a	; 0x173a <fputc>
    16e2:	81 10       	cpse	r8, r1
    16e4:	f5 cf       	rjmp	.-22     	; 0x16d0 <vfprintf+0x384>
    16e6:	22 20       	and	r2, r2
    16e8:	09 f4       	brne	.+2      	; 0x16ec <vfprintf+0x3a0>
    16ea:	42 ce       	rjmp	.-892    	; 0x1370 <vfprintf+0x24>
    16ec:	b6 01       	movw	r22, r12
    16ee:	80 e2       	ldi	r24, 0x20	; 32
    16f0:	90 e0       	ldi	r25, 0x00	; 0
    16f2:	0e 94 9d 0b 	call	0x173a	; 0x173a <fputc>
    16f6:	2a 94       	dec	r2
    16f8:	f6 cf       	rjmp	.-20     	; 0x16e6 <vfprintf+0x39a>
    16fa:	f6 01       	movw	r30, r12
    16fc:	86 81       	ldd	r24, Z+6	; 0x06
    16fe:	97 81       	ldd	r25, Z+7	; 0x07
    1700:	02 c0       	rjmp	.+4      	; 0x1706 <vfprintf+0x3ba>
    1702:	8f ef       	ldi	r24, 0xFF	; 255
    1704:	9f ef       	ldi	r25, 0xFF	; 255
    1706:	2b 96       	adiw	r28, 0x0b	; 11
    1708:	e2 e1       	ldi	r30, 0x12	; 18
    170a:	0c 94 53 0c 	jmp	0x18a6	; 0x18a6 <__epilogue_restores__>

0000170e <strnlen_P>:
    170e:	fc 01       	movw	r30, r24
    1710:	05 90       	lpm	r0, Z+
    1712:	61 50       	subi	r22, 0x01	; 1
    1714:	70 40       	sbci	r23, 0x00	; 0
    1716:	01 10       	cpse	r0, r1
    1718:	d8 f7       	brcc	.-10     	; 0x1710 <strnlen_P+0x2>
    171a:	80 95       	com	r24
    171c:	90 95       	com	r25
    171e:	8e 0f       	add	r24, r30
    1720:	9f 1f       	adc	r25, r31
    1722:	08 95       	ret

00001724 <strnlen>:
    1724:	fc 01       	movw	r30, r24
    1726:	61 50       	subi	r22, 0x01	; 1
    1728:	70 40       	sbci	r23, 0x00	; 0
    172a:	01 90       	ld	r0, Z+
    172c:	01 10       	cpse	r0, r1
    172e:	d8 f7       	brcc	.-10     	; 0x1726 <strnlen+0x2>
    1730:	80 95       	com	r24
    1732:	90 95       	com	r25
    1734:	8e 0f       	add	r24, r30
    1736:	9f 1f       	adc	r25, r31
    1738:	08 95       	ret

0000173a <fputc>:
    173a:	0f 93       	push	r16
    173c:	1f 93       	push	r17
    173e:	cf 93       	push	r28
    1740:	df 93       	push	r29
    1742:	fb 01       	movw	r30, r22
    1744:	23 81       	ldd	r18, Z+3	; 0x03
    1746:	21 fd       	sbrc	r18, 1
    1748:	03 c0       	rjmp	.+6      	; 0x1750 <fputc+0x16>
    174a:	8f ef       	ldi	r24, 0xFF	; 255
    174c:	9f ef       	ldi	r25, 0xFF	; 255
    174e:	2c c0       	rjmp	.+88     	; 0x17a8 <fputc+0x6e>
    1750:	22 ff       	sbrs	r18, 2
    1752:	16 c0       	rjmp	.+44     	; 0x1780 <fputc+0x46>
    1754:	46 81       	ldd	r20, Z+6	; 0x06
    1756:	57 81       	ldd	r21, Z+7	; 0x07
    1758:	24 81       	ldd	r18, Z+4	; 0x04
    175a:	35 81       	ldd	r19, Z+5	; 0x05
    175c:	42 17       	cp	r20, r18
    175e:	53 07       	cpc	r21, r19
    1760:	44 f4       	brge	.+16     	; 0x1772 <fputc+0x38>
    1762:	a0 81       	ld	r26, Z
    1764:	b1 81       	ldd	r27, Z+1	; 0x01
    1766:	9d 01       	movw	r18, r26
    1768:	2f 5f       	subi	r18, 0xFF	; 255
    176a:	3f 4f       	sbci	r19, 0xFF	; 255
    176c:	31 83       	std	Z+1, r19	; 0x01
    176e:	20 83       	st	Z, r18
    1770:	8c 93       	st	X, r24
    1772:	26 81       	ldd	r18, Z+6	; 0x06
    1774:	37 81       	ldd	r19, Z+7	; 0x07
    1776:	2f 5f       	subi	r18, 0xFF	; 255
    1778:	3f 4f       	sbci	r19, 0xFF	; 255
    177a:	37 83       	std	Z+7, r19	; 0x07
    177c:	26 83       	std	Z+6, r18	; 0x06
    177e:	14 c0       	rjmp	.+40     	; 0x17a8 <fputc+0x6e>
    1780:	8b 01       	movw	r16, r22
    1782:	ec 01       	movw	r28, r24
    1784:	fb 01       	movw	r30, r22
    1786:	00 84       	ldd	r0, Z+8	; 0x08
    1788:	f1 85       	ldd	r31, Z+9	; 0x09
    178a:	e0 2d       	mov	r30, r0
    178c:	09 95       	icall
    178e:	89 2b       	or	r24, r25
    1790:	e1 f6       	brne	.-72     	; 0x174a <fputc+0x10>
    1792:	d8 01       	movw	r26, r16
    1794:	16 96       	adiw	r26, 0x06	; 6
    1796:	8d 91       	ld	r24, X+
    1798:	9c 91       	ld	r25, X
    179a:	17 97       	sbiw	r26, 0x07	; 7
    179c:	01 96       	adiw	r24, 0x01	; 1
    179e:	17 96       	adiw	r26, 0x07	; 7
    17a0:	9c 93       	st	X, r25
    17a2:	8e 93       	st	-X, r24
    17a4:	16 97       	sbiw	r26, 0x06	; 6
    17a6:	ce 01       	movw	r24, r28
    17a8:	df 91       	pop	r29
    17aa:	cf 91       	pop	r28
    17ac:	1f 91       	pop	r17
    17ae:	0f 91       	pop	r16
    17b0:	08 95       	ret

000017b2 <__ultoa_invert>:
    17b2:	fa 01       	movw	r30, r20
    17b4:	aa 27       	eor	r26, r26
    17b6:	28 30       	cpi	r18, 0x08	; 8
    17b8:	51 f1       	breq	.+84     	; 0x180e <__ultoa_invert+0x5c>
    17ba:	20 31       	cpi	r18, 0x10	; 16
    17bc:	81 f1       	breq	.+96     	; 0x181e <__ultoa_invert+0x6c>
    17be:	e8 94       	clt
    17c0:	6f 93       	push	r22
    17c2:	6e 7f       	andi	r22, 0xFE	; 254
    17c4:	6e 5f       	subi	r22, 0xFE	; 254
    17c6:	7f 4f       	sbci	r23, 0xFF	; 255
    17c8:	8f 4f       	sbci	r24, 0xFF	; 255
    17ca:	9f 4f       	sbci	r25, 0xFF	; 255
    17cc:	af 4f       	sbci	r26, 0xFF	; 255
    17ce:	b1 e0       	ldi	r27, 0x01	; 1
    17d0:	3e d0       	rcall	.+124    	; 0x184e <__ultoa_invert+0x9c>
    17d2:	b4 e0       	ldi	r27, 0x04	; 4
    17d4:	3c d0       	rcall	.+120    	; 0x184e <__ultoa_invert+0x9c>
    17d6:	67 0f       	add	r22, r23
    17d8:	78 1f       	adc	r23, r24
    17da:	89 1f       	adc	r24, r25
    17dc:	9a 1f       	adc	r25, r26
    17de:	a1 1d       	adc	r26, r1
    17e0:	68 0f       	add	r22, r24
    17e2:	79 1f       	adc	r23, r25
    17e4:	8a 1f       	adc	r24, r26
    17e6:	91 1d       	adc	r25, r1
    17e8:	a1 1d       	adc	r26, r1
    17ea:	6a 0f       	add	r22, r26
    17ec:	71 1d       	adc	r23, r1
    17ee:	81 1d       	adc	r24, r1
    17f0:	91 1d       	adc	r25, r1
    17f2:	a1 1d       	adc	r26, r1
    17f4:	20 d0       	rcall	.+64     	; 0x1836 <__ultoa_invert+0x84>
    17f6:	09 f4       	brne	.+2      	; 0x17fa <__ultoa_invert+0x48>
    17f8:	68 94       	set
    17fa:	3f 91       	pop	r19
    17fc:	2a e0       	ldi	r18, 0x0A	; 10
    17fe:	26 9f       	mul	r18, r22
    1800:	11 24       	eor	r1, r1
    1802:	30 19       	sub	r19, r0
    1804:	30 5d       	subi	r19, 0xD0	; 208
    1806:	31 93       	st	Z+, r19
    1808:	de f6       	brtc	.-74     	; 0x17c0 <__ultoa_invert+0xe>
    180a:	cf 01       	movw	r24, r30
    180c:	08 95       	ret
    180e:	46 2f       	mov	r20, r22
    1810:	47 70       	andi	r20, 0x07	; 7
    1812:	40 5d       	subi	r20, 0xD0	; 208
    1814:	41 93       	st	Z+, r20
    1816:	b3 e0       	ldi	r27, 0x03	; 3
    1818:	0f d0       	rcall	.+30     	; 0x1838 <__ultoa_invert+0x86>
    181a:	c9 f7       	brne	.-14     	; 0x180e <__ultoa_invert+0x5c>
    181c:	f6 cf       	rjmp	.-20     	; 0x180a <__ultoa_invert+0x58>
    181e:	46 2f       	mov	r20, r22
    1820:	4f 70       	andi	r20, 0x0F	; 15
    1822:	40 5d       	subi	r20, 0xD0	; 208
    1824:	4a 33       	cpi	r20, 0x3A	; 58
    1826:	18 f0       	brcs	.+6      	; 0x182e <__ultoa_invert+0x7c>
    1828:	49 5d       	subi	r20, 0xD9	; 217
    182a:	31 fd       	sbrc	r19, 1
    182c:	40 52       	subi	r20, 0x20	; 32
    182e:	41 93       	st	Z+, r20
    1830:	02 d0       	rcall	.+4      	; 0x1836 <__ultoa_invert+0x84>
    1832:	a9 f7       	brne	.-22     	; 0x181e <__ultoa_invert+0x6c>
    1834:	ea cf       	rjmp	.-44     	; 0x180a <__ultoa_invert+0x58>
    1836:	b4 e0       	ldi	r27, 0x04	; 4
    1838:	a6 95       	lsr	r26
    183a:	97 95       	ror	r25
    183c:	87 95       	ror	r24
    183e:	77 95       	ror	r23
    1840:	67 95       	ror	r22
    1842:	ba 95       	dec	r27
    1844:	c9 f7       	brne	.-14     	; 0x1838 <__ultoa_invert+0x86>
    1846:	00 97       	sbiw	r24, 0x00	; 0
    1848:	61 05       	cpc	r22, r1
    184a:	71 05       	cpc	r23, r1
    184c:	08 95       	ret
    184e:	9b 01       	movw	r18, r22
    1850:	ac 01       	movw	r20, r24
    1852:	0a 2e       	mov	r0, r26
    1854:	06 94       	lsr	r0
    1856:	57 95       	ror	r21
    1858:	47 95       	ror	r20
    185a:	37 95       	ror	r19
    185c:	27 95       	ror	r18
    185e:	ba 95       	dec	r27
    1860:	c9 f7       	brne	.-14     	; 0x1854 <__ultoa_invert+0xa2>
    1862:	62 0f       	add	r22, r18
    1864:	73 1f       	adc	r23, r19
    1866:	84 1f       	adc	r24, r20
    1868:	95 1f       	adc	r25, r21
    186a:	a0 1d       	adc	r26, r0
    186c:	08 95       	ret

0000186e <__prologue_saves__>:
    186e:	2f 92       	push	r2
    1870:	3f 92       	push	r3
    1872:	4f 92       	push	r4
    1874:	5f 92       	push	r5
    1876:	6f 92       	push	r6
    1878:	7f 92       	push	r7
    187a:	8f 92       	push	r8
    187c:	9f 92       	push	r9
    187e:	af 92       	push	r10
    1880:	bf 92       	push	r11
    1882:	cf 92       	push	r12
    1884:	df 92       	push	r13
    1886:	ef 92       	push	r14
    1888:	ff 92       	push	r15
    188a:	0f 93       	push	r16
    188c:	1f 93       	push	r17
    188e:	cf 93       	push	r28
    1890:	df 93       	push	r29
    1892:	cd b7       	in	r28, 0x3d	; 61
    1894:	de b7       	in	r29, 0x3e	; 62
    1896:	ca 1b       	sub	r28, r26
    1898:	db 0b       	sbc	r29, r27
    189a:	0f b6       	in	r0, 0x3f	; 63
    189c:	f8 94       	cli
    189e:	de bf       	out	0x3e, r29	; 62
    18a0:	0f be       	out	0x3f, r0	; 63
    18a2:	cd bf       	out	0x3d, r28	; 61
    18a4:	09 94       	ijmp

000018a6 <__epilogue_restores__>:
    18a6:	2a 88       	ldd	r2, Y+18	; 0x12
    18a8:	39 88       	ldd	r3, Y+17	; 0x11
    18aa:	48 88       	ldd	r4, Y+16	; 0x10
    18ac:	5f 84       	ldd	r5, Y+15	; 0x0f
    18ae:	6e 84       	ldd	r6, Y+14	; 0x0e
    18b0:	7d 84       	ldd	r7, Y+13	; 0x0d
    18b2:	8c 84       	ldd	r8, Y+12	; 0x0c
    18b4:	9b 84       	ldd	r9, Y+11	; 0x0b
    18b6:	aa 84       	ldd	r10, Y+10	; 0x0a
    18b8:	b9 84       	ldd	r11, Y+9	; 0x09
    18ba:	c8 84       	ldd	r12, Y+8	; 0x08
    18bc:	df 80       	ldd	r13, Y+7	; 0x07
    18be:	ee 80       	ldd	r14, Y+6	; 0x06
    18c0:	fd 80       	ldd	r15, Y+5	; 0x05
    18c2:	0c 81       	ldd	r16, Y+4	; 0x04
    18c4:	1b 81       	ldd	r17, Y+3	; 0x03
    18c6:	aa 81       	ldd	r26, Y+2	; 0x02
    18c8:	b9 81       	ldd	r27, Y+1	; 0x01
    18ca:	ce 0f       	add	r28, r30
    18cc:	d1 1d       	adc	r29, r1
    18ce:	0f b6       	in	r0, 0x3f	; 63
    18d0:	f8 94       	cli
    18d2:	de bf       	out	0x3e, r29	; 62
    18d4:	0f be       	out	0x3f, r0	; 63
    18d6:	cd bf       	out	0x3d, r28	; 61
    18d8:	ed 01       	movw	r28, r26
    18da:	08 95       	ret

000018dc <_exit>:
    18dc:	f8 94       	cli

000018de <__stop_program>:
    18de:	ff cf       	rjmp	.-2      	; 0x18de <__stop_program>
